ARM GAS  C:\Users\tkam627.UOA\AppData\Local\Temp\cco8XfIi.s 			page 1


   1              		.syntax unified
   2              		.cpu cortex-m3
   3              		.fpu softvfp
   4              		.eabi_attribute 20, 1
   5              		.eabi_attribute 21, 1
   6              		.eabi_attribute 23, 3
   7              		.eabi_attribute 24, 1
   8              		.eabi_attribute 25, 1
   9              		.eabi_attribute 26, 1
  10              		.eabi_attribute 30, 1
  11              		.eabi_attribute 34, 1
  12              		.eabi_attribute 18, 4
  13              		.thumb
  14              		.syntax unified
  15              		.file	"cyfitter_cfg.c"
  16              		.text
  17              	.Ltext0:
  18              		.cfi_sections	.debug_frame
  19              		.section	.text.CyClockStartupError,"ax",%progbits
  20              		.align	2
  21              		.thumb
  22              		.thumb_func
  23              		.type	CyClockStartupError, %function
  24              	CyClockStartupError:
  25              	.LFB3:
  26              		.file 1 "Generated_Source\\PSoC5\\cyfitter_cfg.c"
   1:Generated_Source\PSoC5/cyfitter_cfg.c **** 
   2:Generated_Source\PSoC5/cyfitter_cfg.c **** /*******************************************************************************
   3:Generated_Source\PSoC5/cyfitter_cfg.c **** * File Name: cyfitter_cfg.c
   4:Generated_Source\PSoC5/cyfitter_cfg.c **** * 
   5:Generated_Source\PSoC5/cyfitter_cfg.c **** * PSoC Creator  4.2
   6:Generated_Source\PSoC5/cyfitter_cfg.c **** *
   7:Generated_Source\PSoC5/cyfitter_cfg.c **** * Description:
   8:Generated_Source\PSoC5/cyfitter_cfg.c **** * This file contains device initialization code.
   9:Generated_Source\PSoC5/cyfitter_cfg.c **** * Except for the user defined sections in CyClockStartupError(), this file should not be modified.
  10:Generated_Source\PSoC5/cyfitter_cfg.c **** * This file is automatically generated by PSoC Creator.
  11:Generated_Source\PSoC5/cyfitter_cfg.c **** *
  12:Generated_Source\PSoC5/cyfitter_cfg.c **** ********************************************************************************
  13:Generated_Source\PSoC5/cyfitter_cfg.c **** * Copyright (c) 2007-2018 Cypress Semiconductor.  All rights reserved.
  14:Generated_Source\PSoC5/cyfitter_cfg.c **** * You may use this file only in accordance with the license, terms, conditions, 
  15:Generated_Source\PSoC5/cyfitter_cfg.c **** * disclaimers, and limitations in the end user license agreement accompanying 
  16:Generated_Source\PSoC5/cyfitter_cfg.c **** * the software package with which this file was provided.
  17:Generated_Source\PSoC5/cyfitter_cfg.c **** ********************************************************************************/
  18:Generated_Source\PSoC5/cyfitter_cfg.c **** 
  19:Generated_Source\PSoC5/cyfitter_cfg.c **** #include <string.h>
  20:Generated_Source\PSoC5/cyfitter_cfg.c **** #include "cytypes.h"
  21:Generated_Source\PSoC5/cyfitter_cfg.c **** #include "cydevice_trm.h"
  22:Generated_Source\PSoC5/cyfitter_cfg.c **** #include "cyfitter.h"
  23:Generated_Source\PSoC5/cyfitter_cfg.c **** #include "CyLib.h"
  24:Generated_Source\PSoC5/cyfitter_cfg.c **** #include "cyfitter_cfg.h"
  25:Generated_Source\PSoC5/cyfitter_cfg.c **** #include "cyapicallbacks.h"
  26:Generated_Source\PSoC5/cyfitter_cfg.c **** 
  27:Generated_Source\PSoC5/cyfitter_cfg.c **** #define CY_NEED_CYCLOCKSTARTUPERROR 1
  28:Generated_Source\PSoC5/cyfitter_cfg.c **** 
  29:Generated_Source\PSoC5/cyfitter_cfg.c **** 
  30:Generated_Source\PSoC5/cyfitter_cfg.c **** #if defined(__GNUC__) || defined(__ARMCC_VERSION)
  31:Generated_Source\PSoC5/cyfitter_cfg.c ****     #define CYPACKED 
ARM GAS  C:\Users\tkam627.UOA\AppData\Local\Temp\cco8XfIi.s 			page 2


  32:Generated_Source\PSoC5/cyfitter_cfg.c ****     #define CYPACKED_ATTR __attribute__ ((packed))
  33:Generated_Source\PSoC5/cyfitter_cfg.c ****     #define CYALIGNED __attribute__ ((aligned))
  34:Generated_Source\PSoC5/cyfitter_cfg.c ****     #define CY_CFG_UNUSED __attribute__ ((unused))
  35:Generated_Source\PSoC5/cyfitter_cfg.c ****     #ifndef CY_CFG_SECTION
  36:Generated_Source\PSoC5/cyfitter_cfg.c ****         #define CY_CFG_SECTION __attribute__ ((section(".psocinit")))
  37:Generated_Source\PSoC5/cyfitter_cfg.c ****     #endif
  38:Generated_Source\PSoC5/cyfitter_cfg.c ****     
  39:Generated_Source\PSoC5/cyfitter_cfg.c ****     #if defined(__ARMCC_VERSION)
  40:Generated_Source\PSoC5/cyfitter_cfg.c ****         #define CY_CFG_MEMORY_BARRIER() __memory_changed()
  41:Generated_Source\PSoC5/cyfitter_cfg.c ****     #else
  42:Generated_Source\PSoC5/cyfitter_cfg.c ****         #define CY_CFG_MEMORY_BARRIER() __sync_synchronize()
  43:Generated_Source\PSoC5/cyfitter_cfg.c ****     #endif
  44:Generated_Source\PSoC5/cyfitter_cfg.c ****     
  45:Generated_Source\PSoC5/cyfitter_cfg.c **** #elif defined(__ICCARM__)
  46:Generated_Source\PSoC5/cyfitter_cfg.c ****     #include <intrinsics.h>
  47:Generated_Source\PSoC5/cyfitter_cfg.c **** 
  48:Generated_Source\PSoC5/cyfitter_cfg.c ****     #define CYPACKED __packed
  49:Generated_Source\PSoC5/cyfitter_cfg.c ****     #define CYPACKED_ATTR 
  50:Generated_Source\PSoC5/cyfitter_cfg.c ****     #define CYALIGNED _Pragma("data_alignment=4")
  51:Generated_Source\PSoC5/cyfitter_cfg.c ****     #define CY_CFG_UNUSED _Pragma("diag_suppress=Pe177")
  52:Generated_Source\PSoC5/cyfitter_cfg.c ****     #define CY_CFG_SECTION _Pragma("location=\".psocinit\"")
  53:Generated_Source\PSoC5/cyfitter_cfg.c ****     
  54:Generated_Source\PSoC5/cyfitter_cfg.c ****     #define CY_CFG_MEMORY_BARRIER() __DMB()
  55:Generated_Source\PSoC5/cyfitter_cfg.c ****     
  56:Generated_Source\PSoC5/cyfitter_cfg.c **** #else
  57:Generated_Source\PSoC5/cyfitter_cfg.c ****     #error Unsupported toolchain
  58:Generated_Source\PSoC5/cyfitter_cfg.c **** #endif
  59:Generated_Source\PSoC5/cyfitter_cfg.c **** 
  60:Generated_Source\PSoC5/cyfitter_cfg.c **** #ifndef CYCODE
  61:Generated_Source\PSoC5/cyfitter_cfg.c ****     #define CYCODE
  62:Generated_Source\PSoC5/cyfitter_cfg.c **** #endif
  63:Generated_Source\PSoC5/cyfitter_cfg.c **** #ifndef CYDATA
  64:Generated_Source\PSoC5/cyfitter_cfg.c ****     #define CYDATA
  65:Generated_Source\PSoC5/cyfitter_cfg.c **** #endif
  66:Generated_Source\PSoC5/cyfitter_cfg.c **** #ifndef CYFAR
  67:Generated_Source\PSoC5/cyfitter_cfg.c ****     #define CYFAR
  68:Generated_Source\PSoC5/cyfitter_cfg.c **** #endif
  69:Generated_Source\PSoC5/cyfitter_cfg.c **** #ifndef CYXDATA
  70:Generated_Source\PSoC5/cyfitter_cfg.c ****     #define CYXDATA
  71:Generated_Source\PSoC5/cyfitter_cfg.c **** #endif
  72:Generated_Source\PSoC5/cyfitter_cfg.c **** 
  73:Generated_Source\PSoC5/cyfitter_cfg.c **** 
  74:Generated_Source\PSoC5/cyfitter_cfg.c **** CY_CFG_UNUSED
  75:Generated_Source\PSoC5/cyfitter_cfg.c **** static void CYMEMZERO(void *s, size_t n);
  76:Generated_Source\PSoC5/cyfitter_cfg.c **** CY_CFG_UNUSED
  77:Generated_Source\PSoC5/cyfitter_cfg.c **** static void CYMEMZERO(void *s, size_t n)
  78:Generated_Source\PSoC5/cyfitter_cfg.c **** {
  79:Generated_Source\PSoC5/cyfitter_cfg.c **** 	(void)memset(s, 0, n);
  80:Generated_Source\PSoC5/cyfitter_cfg.c **** }
  81:Generated_Source\PSoC5/cyfitter_cfg.c **** CY_CFG_UNUSED
  82:Generated_Source\PSoC5/cyfitter_cfg.c **** static void CYCONFIGCPY(void *dest, const void *src, size_t n);
  83:Generated_Source\PSoC5/cyfitter_cfg.c **** CY_CFG_UNUSED
  84:Generated_Source\PSoC5/cyfitter_cfg.c **** static void CYCONFIGCPY(void *dest, const void *src, size_t n)
  85:Generated_Source\PSoC5/cyfitter_cfg.c **** {
  86:Generated_Source\PSoC5/cyfitter_cfg.c **** 	(void)memcpy(dest, src, n);
  87:Generated_Source\PSoC5/cyfitter_cfg.c **** }
  88:Generated_Source\PSoC5/cyfitter_cfg.c **** CY_CFG_UNUSED
ARM GAS  C:\Users\tkam627.UOA\AppData\Local\Temp\cco8XfIi.s 			page 3


  89:Generated_Source\PSoC5/cyfitter_cfg.c **** static void CYCONFIGCPYCODE(void *dest, const void *src, size_t n);
  90:Generated_Source\PSoC5/cyfitter_cfg.c **** CY_CFG_UNUSED
  91:Generated_Source\PSoC5/cyfitter_cfg.c **** static void CYCONFIGCPYCODE(void *dest, const void *src, size_t n)
  92:Generated_Source\PSoC5/cyfitter_cfg.c **** {
  93:Generated_Source\PSoC5/cyfitter_cfg.c **** 	(void)memcpy(dest, src, n);
  94:Generated_Source\PSoC5/cyfitter_cfg.c **** }
  95:Generated_Source\PSoC5/cyfitter_cfg.c **** 
  96:Generated_Source\PSoC5/cyfitter_cfg.c **** 
  97:Generated_Source\PSoC5/cyfitter_cfg.c **** 
  98:Generated_Source\PSoC5/cyfitter_cfg.c **** 
  99:Generated_Source\PSoC5/cyfitter_cfg.c **** /* Clock startup error codes                                                   */
 100:Generated_Source\PSoC5/cyfitter_cfg.c **** #define CYCLOCKSTART_NO_ERROR    0u
 101:Generated_Source\PSoC5/cyfitter_cfg.c **** #define CYCLOCKSTART_XTAL_ERROR  1u
 102:Generated_Source\PSoC5/cyfitter_cfg.c **** #define CYCLOCKSTART_32KHZ_ERROR 2u
 103:Generated_Source\PSoC5/cyfitter_cfg.c **** #define CYCLOCKSTART_PLL_ERROR   3u
 104:Generated_Source\PSoC5/cyfitter_cfg.c **** #define CYCLOCKSTART_FLL_ERROR   4u
 105:Generated_Source\PSoC5/cyfitter_cfg.c **** #define CYCLOCKSTART_WCO_ERROR   5u
 106:Generated_Source\PSoC5/cyfitter_cfg.c **** 
 107:Generated_Source\PSoC5/cyfitter_cfg.c **** 
 108:Generated_Source\PSoC5/cyfitter_cfg.c **** #ifdef CY_NEED_CYCLOCKSTARTUPERROR
 109:Generated_Source\PSoC5/cyfitter_cfg.c **** /*******************************************************************************
 110:Generated_Source\PSoC5/cyfitter_cfg.c **** * Function Name: CyClockStartupError
 111:Generated_Source\PSoC5/cyfitter_cfg.c **** ********************************************************************************
 112:Generated_Source\PSoC5/cyfitter_cfg.c **** * Summary:
 113:Generated_Source\PSoC5/cyfitter_cfg.c **** *  If an error is encountered during clock configuration (crystal startup error,
 114:Generated_Source\PSoC5/cyfitter_cfg.c **** *  PLL lock error, etc.), the system will end up here.  Unless reimplemented by
 115:Generated_Source\PSoC5/cyfitter_cfg.c **** *  the customer, this function will stop in an infinite loop.
 116:Generated_Source\PSoC5/cyfitter_cfg.c **** *
 117:Generated_Source\PSoC5/cyfitter_cfg.c **** * Parameters:
 118:Generated_Source\PSoC5/cyfitter_cfg.c **** *   void
 119:Generated_Source\PSoC5/cyfitter_cfg.c **** *
 120:Generated_Source\PSoC5/cyfitter_cfg.c **** * Return:
 121:Generated_Source\PSoC5/cyfitter_cfg.c **** *   void
 122:Generated_Source\PSoC5/cyfitter_cfg.c **** *
 123:Generated_Source\PSoC5/cyfitter_cfg.c **** *******************************************************************************/
 124:Generated_Source\PSoC5/cyfitter_cfg.c **** CY_CFG_UNUSED
 125:Generated_Source\PSoC5/cyfitter_cfg.c **** static void CyClockStartupError(uint8 errorCode);
 126:Generated_Source\PSoC5/cyfitter_cfg.c **** CY_CFG_UNUSED
 127:Generated_Source\PSoC5/cyfitter_cfg.c **** static void CyClockStartupError(uint8 errorCode)
 128:Generated_Source\PSoC5/cyfitter_cfg.c **** {
  27              		.loc 1 128 0
  28              		.cfi_startproc
  29              		@ Volatile: function does not return.
  30              		@ args = 0, pretend = 0, frame = 0
  31              		@ frame_needed = 0, uses_anonymous_args = 0
  32              		@ link register save eliminated.
  33              	.LVL0:
  34              	.L2:
  35 0000 FEE7     		b	.L2
  36              		.cfi_endproc
  37              	.LFE3:
  38              		.size	CyClockStartupError, .-CyClockStartupError
  39 0002 00BF     		.section	.text.cfg_write_bytes32,"ax",%progbits
  40              		.align	2
  41              		.thumb
  42              		.thumb_func
  43              		.type	cfg_write_bytes32, %function
ARM GAS  C:\Users\tkam627.UOA\AppData\Local\Temp\cco8XfIi.s 			page 4


  44              	cfg_write_bytes32:
  45              	.LFB4:
 129:Generated_Source\PSoC5/cyfitter_cfg.c ****     /* To remove the compiler warning if errorCode not used.                */
 130:Generated_Source\PSoC5/cyfitter_cfg.c ****     errorCode = errorCode;
 131:Generated_Source\PSoC5/cyfitter_cfg.c **** 
 132:Generated_Source\PSoC5/cyfitter_cfg.c ****     /* If we have a clock startup error (bad MHz crystal, PLL lock, etc.),  */
 133:Generated_Source\PSoC5/cyfitter_cfg.c ****     /* we will end up here to allow the customer to implement something to  */
 134:Generated_Source\PSoC5/cyfitter_cfg.c ****     /* deal with the clock condition.                                       */
 135:Generated_Source\PSoC5/cyfitter_cfg.c **** 
 136:Generated_Source\PSoC5/cyfitter_cfg.c **** #ifdef CY_CFG_CLOCK_STARTUP_ERROR_CALLBACK
 137:Generated_Source\PSoC5/cyfitter_cfg.c ****     CY_CFG_Clock_Startup_ErrorCallback();
 138:Generated_Source\PSoC5/cyfitter_cfg.c **** #else
 139:Generated_Source\PSoC5/cyfitter_cfg.c ****     /*  If not using CY_CFG_CLOCK_STARTUP_ERROR_CALLBACK, place your clock startup code here. */
 140:Generated_Source\PSoC5/cyfitter_cfg.c ****     /* `#START CyClockStartupError` */
 141:Generated_Source\PSoC5/cyfitter_cfg.c **** 
 142:Generated_Source\PSoC5/cyfitter_cfg.c **** 
 143:Generated_Source\PSoC5/cyfitter_cfg.c **** 
 144:Generated_Source\PSoC5/cyfitter_cfg.c ****     /* `#END` */
 145:Generated_Source\PSoC5/cyfitter_cfg.c **** 
 146:Generated_Source\PSoC5/cyfitter_cfg.c ****     while(1) {}
 147:Generated_Source\PSoC5/cyfitter_cfg.c **** #endif /* CY_CFG_CLOCK_STARTUP_ERROR_CALLBACK */
 148:Generated_Source\PSoC5/cyfitter_cfg.c **** }
 149:Generated_Source\PSoC5/cyfitter_cfg.c **** #endif
 150:Generated_Source\PSoC5/cyfitter_cfg.c **** 
 151:Generated_Source\PSoC5/cyfitter_cfg.c **** #define CY_CFG_BASE_ADDR_COUNT 32u
 152:Generated_Source\PSoC5/cyfitter_cfg.c **** CYPACKED typedef struct
 153:Generated_Source\PSoC5/cyfitter_cfg.c **** {
 154:Generated_Source\PSoC5/cyfitter_cfg.c **** 	uint8 offset;
 155:Generated_Source\PSoC5/cyfitter_cfg.c **** 	uint8 value;
 156:Generated_Source\PSoC5/cyfitter_cfg.c **** } CYPACKED_ATTR cy_cfg_addrvalue_t;
 157:Generated_Source\PSoC5/cyfitter_cfg.c **** 
 158:Generated_Source\PSoC5/cyfitter_cfg.c **** #define cy_cfg_addr_table ((const uint32 CYFAR *)0x48000000u)
 159:Generated_Source\PSoC5/cyfitter_cfg.c **** #define cy_cfg_data_table ((const cy_cfg_addrvalue_t CYFAR *)0x48000080u)
 160:Generated_Source\PSoC5/cyfitter_cfg.c **** 
 161:Generated_Source\PSoC5/cyfitter_cfg.c **** /* IOPORT_7 Address: CYDEV_PRTDSI_PRT12_BASE Size (bytes): 6 */
 162:Generated_Source\PSoC5/cyfitter_cfg.c **** #define BS_IOPORT_7_VAL ((const uint8 CYFAR *)0x480005DCu)
 163:Generated_Source\PSoC5/cyfitter_cfg.c **** 
 164:Generated_Source\PSoC5/cyfitter_cfg.c **** /* IOPINS0_0 Address: CYREG_PRT0_DM0 Size (bytes): 8 */
 165:Generated_Source\PSoC5/cyfitter_cfg.c **** #define BS_IOPINS0_0_VAL ((const uint8 CYFAR *)0x480005E4u)
 166:Generated_Source\PSoC5/cyfitter_cfg.c **** 
 167:Generated_Source\PSoC5/cyfitter_cfg.c **** /* IOPINS0_7 Address: CYREG_PRT12_DR Size (bytes): 10 */
 168:Generated_Source\PSoC5/cyfitter_cfg.c **** #define BS_IOPINS0_7_VAL ((const uint8 CYFAR *)0x480005ECu)
 169:Generated_Source\PSoC5/cyfitter_cfg.c **** 
 170:Generated_Source\PSoC5/cyfitter_cfg.c **** /* IOPINS0_8 Address: CYREG_PRT15_DM0 Size (bytes): 8 */
 171:Generated_Source\PSoC5/cyfitter_cfg.c **** #define BS_IOPINS0_8_VAL ((const uint8 CYFAR *)0x480005F8u)
 172:Generated_Source\PSoC5/cyfitter_cfg.c **** 
 173:Generated_Source\PSoC5/cyfitter_cfg.c **** /* IOPINS0_1 Address: CYREG_PRT1_DM0 Size (bytes): 8 */
 174:Generated_Source\PSoC5/cyfitter_cfg.c **** #define BS_IOPINS0_1_VAL ((const uint8 CYFAR *)0x48000600u)
 175:Generated_Source\PSoC5/cyfitter_cfg.c **** 
 176:Generated_Source\PSoC5/cyfitter_cfg.c **** /* IOPINS0_2 Address: CYREG_PRT2_DR Size (bytes): 10 */
 177:Generated_Source\PSoC5/cyfitter_cfg.c **** #define BS_IOPINS0_2_VAL ((const uint8 CYFAR *)0x48000608u)
 178:Generated_Source\PSoC5/cyfitter_cfg.c **** 
 179:Generated_Source\PSoC5/cyfitter_cfg.c **** /* IOPINS0_3 Address: CYREG_PRT3_DM0 Size (bytes): 8 */
 180:Generated_Source\PSoC5/cyfitter_cfg.c **** #define BS_IOPINS0_3_VAL ((const uint8 CYFAR *)0x48000614u)
 181:Generated_Source\PSoC5/cyfitter_cfg.c **** 
 182:Generated_Source\PSoC5/cyfitter_cfg.c **** /* CYDEV_CLKDIST_ACFG0_CFG0 Address: CYREG_CLKDIST_ACFG0_CFG0 Size (bytes): 4 */
 183:Generated_Source\PSoC5/cyfitter_cfg.c **** #define BS_CYDEV_CLKDIST_ACFG0_CFG0_VAL ((const uint8 CYFAR *)0x4800061Cu)
ARM GAS  C:\Users\tkam627.UOA\AppData\Local\Temp\cco8XfIi.s 			page 5


 184:Generated_Source\PSoC5/cyfitter_cfg.c **** 
 185:Generated_Source\PSoC5/cyfitter_cfg.c **** 
 186:Generated_Source\PSoC5/cyfitter_cfg.c **** /*******************************************************************************
 187:Generated_Source\PSoC5/cyfitter_cfg.c **** * Function Name: cfg_write_bytes32
 188:Generated_Source\PSoC5/cyfitter_cfg.c **** ********************************************************************************
 189:Generated_Source\PSoC5/cyfitter_cfg.c **** * Summary:
 190:Generated_Source\PSoC5/cyfitter_cfg.c **** *  This function is used for setting up the chip configuration areas that
 191:Generated_Source\PSoC5/cyfitter_cfg.c **** *  contain relatively sparse data.
 192:Generated_Source\PSoC5/cyfitter_cfg.c **** *
 193:Generated_Source\PSoC5/cyfitter_cfg.c **** * Parameters:
 194:Generated_Source\PSoC5/cyfitter_cfg.c **** *   void
 195:Generated_Source\PSoC5/cyfitter_cfg.c **** *
 196:Generated_Source\PSoC5/cyfitter_cfg.c **** * Return:
 197:Generated_Source\PSoC5/cyfitter_cfg.c **** *   void
 198:Generated_Source\PSoC5/cyfitter_cfg.c **** *
 199:Generated_Source\PSoC5/cyfitter_cfg.c **** *******************************************************************************/
 200:Generated_Source\PSoC5/cyfitter_cfg.c **** static void cfg_write_bytes32(const uint32 addr_table[], const cy_cfg_addrvalue_t data_table[]);
 201:Generated_Source\PSoC5/cyfitter_cfg.c **** static void cfg_write_bytes32(const uint32 addr_table[], const cy_cfg_addrvalue_t data_table[])
 202:Generated_Source\PSoC5/cyfitter_cfg.c **** {
  46              		.loc 1 202 0
  47              		.cfi_startproc
  48              		@ args = 0, pretend = 0, frame = 0
  49              		@ frame_needed = 0, uses_anonymous_args = 0
  50              		@ link register save eliminated.
  51              	.LVL1:
  52              		.loc 1 202 0
  53 0000 F0B4     		push	{r4, r5, r6, r7}
  54              		.cfi_def_cfa_offset 16
  55              		.cfi_offset 4, -16
  56              		.cfi_offset 5, -12
  57              		.cfi_offset 6, -8
  58              		.cfi_offset 7, -4
  59              	.LVL2:
 203:Generated_Source\PSoC5/cyfitter_cfg.c **** 	/* For 32-bit little-endian architectures */
 204:Generated_Source\PSoC5/cyfitter_cfg.c **** 	uint32 i, j = 0u;
  60              		.loc 1 204 0
  61 0002 0022     		movs	r2, #0
 205:Generated_Source\PSoC5/cyfitter_cfg.c **** 	for (i = 0u; i < CY_CFG_BASE_ADDR_COUNT; i++)
  62              		.loc 1 205 0
  63 0004 1746     		mov	r7, r2
  64 0006 11E0     		b	.L4
  65              	.LVL3:
  66              	.L7:
  67              	.LBB2:
 206:Generated_Source\PSoC5/cyfitter_cfg.c **** 	{
 207:Generated_Source\PSoC5/cyfitter_cfg.c **** 		uint32 baseAddr = addr_table[i];
  68              		.loc 1 207 0
  69 0008 50F82760 		ldr	r6, [r0, r7, lsl #2]
  70              	.LVL4:
 208:Generated_Source\PSoC5/cyfitter_cfg.c **** 		uint8 count = (uint8)baseAddr;
  71              		.loc 1 208 0
  72 000c F3B2     		uxtb	r3, r6
  73              	.LVL5:
 209:Generated_Source\PSoC5/cyfitter_cfg.c **** 		baseAddr &= 0xFFFFFF00u;
  74              		.loc 1 209 0
  75 000e 26F0FF06 		bic	r6, r6, #255
  76              	.LVL6:
ARM GAS  C:\Users\tkam627.UOA\AppData\Local\Temp\cco8XfIi.s 			page 6


 210:Generated_Source\PSoC5/cyfitter_cfg.c **** 		while (count != 0u)
  77              		.loc 1 210 0
  78 0012 08E0     		b	.L5
  79              	.L6:
 211:Generated_Source\PSoC5/cyfitter_cfg.c **** 		{
 212:Generated_Source\PSoC5/cyfitter_cfg.c **** 			CY_SET_REG8((void *)(baseAddr + data_table[j].offset), data_table[j].value);
  80              		.loc 1 212 0
  81 0014 01EB4205 		add	r5, r1, r2, lsl #1
  82 0018 11F81240 		ldrb	r4, [r1, r2, lsl #1]	@ zero_extendqisi2
  83 001c 6D78     		ldrb	r5, [r5, #1]	@ zero_extendqisi2
  84 001e A555     		strb	r5, [r4, r6]
 213:Generated_Source\PSoC5/cyfitter_cfg.c **** 			j++;
  85              		.loc 1 213 0
  86 0020 0132     		adds	r2, r2, #1
  87              	.LVL7:
 214:Generated_Source\PSoC5/cyfitter_cfg.c **** 			count--;
  88              		.loc 1 214 0
  89 0022 013B     		subs	r3, r3, #1
  90              	.LVL8:
  91 0024 DBB2     		uxtb	r3, r3
  92              	.LVL9:
  93              	.L5:
 210:Generated_Source\PSoC5/cyfitter_cfg.c **** 		{
  94              		.loc 1 210 0
  95 0026 002B     		cmp	r3, #0
  96 0028 F4D1     		bne	.L6
  97              	.LBE2:
 205:Generated_Source\PSoC5/cyfitter_cfg.c **** 	{
  98              		.loc 1 205 0 discriminator 2
  99 002a 0137     		adds	r7, r7, #1
 100              	.LVL10:
 101              	.L4:
 205:Generated_Source\PSoC5/cyfitter_cfg.c **** 	{
 102              		.loc 1 205 0 is_stmt 0 discriminator 1
 103 002c 1F2F     		cmp	r7, #31
 104 002e EBD9     		bls	.L7
 215:Generated_Source\PSoC5/cyfitter_cfg.c **** 		}
 216:Generated_Source\PSoC5/cyfitter_cfg.c **** 	}
 217:Generated_Source\PSoC5/cyfitter_cfg.c **** }
 105              		.loc 1 217 0 is_stmt 1
 106 0030 F0BC     		pop	{r4, r5, r6, r7}
 107              		.cfi_restore 7
 108              		.cfi_restore 6
 109              		.cfi_restore 5
 110              		.cfi_restore 4
 111              		.cfi_def_cfa_offset 0
 112              	.LVL11:
 113 0032 7047     		bx	lr
 114              		.cfi_endproc
 115              	.LFE4:
 116              		.size	cfg_write_bytes32, .-cfg_write_bytes32
 117              		.section	.text.AnalogSetDefault,"ax",%progbits
 118              		.align	2
 119              		.thumb
 120              		.thumb_func
 121              		.type	AnalogSetDefault, %function
 122              	AnalogSetDefault:
ARM GAS  C:\Users\tkam627.UOA\AppData\Local\Temp\cco8XfIi.s 			page 7


 123              	.LFB6:
 218:Generated_Source\PSoC5/cyfitter_cfg.c **** 
 219:Generated_Source\PSoC5/cyfitter_cfg.c **** /*******************************************************************************
 220:Generated_Source\PSoC5/cyfitter_cfg.c **** * Function Name: ClockSetup
 221:Generated_Source\PSoC5/cyfitter_cfg.c **** ********************************************************************************
 222:Generated_Source\PSoC5/cyfitter_cfg.c **** *
 223:Generated_Source\PSoC5/cyfitter_cfg.c **** * Summary:
 224:Generated_Source\PSoC5/cyfitter_cfg.c **** *  Performs the initialization of all of the clocks in the device based on the
 225:Generated_Source\PSoC5/cyfitter_cfg.c **** *  settings in the Clock tab of the DWR.  This includes enabling the requested
 226:Generated_Source\PSoC5/cyfitter_cfg.c **** *  clocks and setting the necessary dividers to produce the desired frequency. 
 227:Generated_Source\PSoC5/cyfitter_cfg.c **** *
 228:Generated_Source\PSoC5/cyfitter_cfg.c **** * Parameters:
 229:Generated_Source\PSoC5/cyfitter_cfg.c **** *  void
 230:Generated_Source\PSoC5/cyfitter_cfg.c **** *
 231:Generated_Source\PSoC5/cyfitter_cfg.c **** * Return:
 232:Generated_Source\PSoC5/cyfitter_cfg.c **** *  void
 233:Generated_Source\PSoC5/cyfitter_cfg.c **** *
 234:Generated_Source\PSoC5/cyfitter_cfg.c **** *******************************************************************************/
 235:Generated_Source\PSoC5/cyfitter_cfg.c **** static void ClockSetup(void);
 236:Generated_Source\PSoC5/cyfitter_cfg.c **** static void ClockSetup(void)
 237:Generated_Source\PSoC5/cyfitter_cfg.c **** {
 238:Generated_Source\PSoC5/cyfitter_cfg.c **** 	uint32 timeout;
 239:Generated_Source\PSoC5/cyfitter_cfg.c **** 	uint8 pllLock;
 240:Generated_Source\PSoC5/cyfitter_cfg.c **** 
 241:Generated_Source\PSoC5/cyfitter_cfg.c **** 
 242:Generated_Source\PSoC5/cyfitter_cfg.c **** 	/* Configure Digital Clocks based on settings from Clock DWR */
 243:Generated_Source\PSoC5/cyfitter_cfg.c **** 	CY_SET_XTND_REG16((void CYFAR *)(CYREG_CLKDIST_DCFG0_CFG0), 0x0000u);
 244:Generated_Source\PSoC5/cyfitter_cfg.c **** 	CY_SET_XTND_REG8((void CYFAR *)(CYREG_CLKDIST_DCFG0_CFG0 + 0x2u), 0x50u);
 245:Generated_Source\PSoC5/cyfitter_cfg.c **** 	CY_SET_XTND_REG16((void CYFAR *)(CYREG_CLKDIST_DCFG1_CFG0), 0x0004u);
 246:Generated_Source\PSoC5/cyfitter_cfg.c **** 	CY_SET_XTND_REG8((void CYFAR *)(CYREG_CLKDIST_DCFG1_CFG0 + 0x2u), 0x18u);
 247:Generated_Source\PSoC5/cyfitter_cfg.c **** 	CY_SET_XTND_REG16((void CYFAR *)(CYREG_CLKDIST_DCFG2_CFG0), 0x0004u);
 248:Generated_Source\PSoC5/cyfitter_cfg.c **** 	CY_SET_XTND_REG8((void CYFAR *)(CYREG_CLKDIST_DCFG2_CFG0 + 0x2u), 0x18u);
 249:Generated_Source\PSoC5/cyfitter_cfg.c **** 	CY_SET_XTND_REG16((void CYFAR *)(CYREG_CLKDIST_DCFG3_CFG0), 0x0004u);
 250:Generated_Source\PSoC5/cyfitter_cfg.c **** 	CY_SET_XTND_REG8((void CYFAR *)(CYREG_CLKDIST_DCFG3_CFG0 + 0x2u), 0x18u);
 251:Generated_Source\PSoC5/cyfitter_cfg.c **** 	CY_SET_XTND_REG16((void CYFAR *)(CYREG_CLKDIST_DCFG4_CFG0), 0x0019u);
 252:Generated_Source\PSoC5/cyfitter_cfg.c **** 	CY_SET_XTND_REG8((void CYFAR *)(CYREG_CLKDIST_DCFG4_CFG0 + 0x2u), 0x18u);
 253:Generated_Source\PSoC5/cyfitter_cfg.c **** 
 254:Generated_Source\PSoC5/cyfitter_cfg.c **** 	/* Configure Analog Clocks based on settings from Clock DWR */
 255:Generated_Source\PSoC5/cyfitter_cfg.c **** 	CYCONFIGCPY((void CYFAR *)(CYREG_CLKDIST_ACFG0_CFG0), (const void CYFAR *)(BS_CYDEV_CLKDIST_ACFG0_
 256:Generated_Source\PSoC5/cyfitter_cfg.c **** 
 257:Generated_Source\PSoC5/cyfitter_cfg.c **** 	/* Configure ILO based on settings from Clock DWR */
 258:Generated_Source\PSoC5/cyfitter_cfg.c **** 	CY_SET_XTND_REG8((void CYFAR *)(CYREG_SLOWCLK_ILO_CR0), 0x02u);
 259:Generated_Source\PSoC5/cyfitter_cfg.c **** 	CY_SET_XTND_REG8((void CYFAR *)(CYREG_CLKDIST_CR), 0x08u);
 260:Generated_Source\PSoC5/cyfitter_cfg.c **** 
 261:Generated_Source\PSoC5/cyfitter_cfg.c **** 	/* Configure IMO based on settings from Clock DWR */
 262:Generated_Source\PSoC5/cyfitter_cfg.c **** 	CY_SET_XTND_REG8((void CYFAR *)(CYREG_FASTCLK_IMO_CR), 0x03u);
 263:Generated_Source\PSoC5/cyfitter_cfg.c **** 	CY_SET_XTND_REG8((void CYFAR *)(CYREG_IMO_TR1), (CY_GET_XTND_REG8((void CYFAR *)CYREG_FLSHID_CUST_
 264:Generated_Source\PSoC5/cyfitter_cfg.c **** 
 265:Generated_Source\PSoC5/cyfitter_cfg.c **** 	/* Configure PLL based on settings from Clock DWR */
 266:Generated_Source\PSoC5/cyfitter_cfg.c **** 	CY_SET_XTND_REG16((void CYFAR *)(CYREG_FASTCLK_PLL_P), 0x0008u);
 267:Generated_Source\PSoC5/cyfitter_cfg.c **** 	CY_SET_XTND_REG16((void CYFAR *)(CYREG_FASTCLK_PLL_CFG0), 0x1251u);
 268:Generated_Source\PSoC5/cyfitter_cfg.c **** 	/* Wait up to 250us for the PLL to lock */
 269:Generated_Source\PSoC5/cyfitter_cfg.c **** 	pllLock = 0u;
 270:Generated_Source\PSoC5/cyfitter_cfg.c **** 	for (timeout = 250u / 10u; (timeout > 0u) && (pllLock != 0x03u); timeout--)
 271:Generated_Source\PSoC5/cyfitter_cfg.c **** 	{ 
 272:Generated_Source\PSoC5/cyfitter_cfg.c **** 		pllLock = 0x03u & ((uint8)((uint8)pllLock << 1) | ((CY_GET_XTND_REG8((void CYFAR *)CYREG_FASTCLK_
 273:Generated_Source\PSoC5/cyfitter_cfg.c **** 		CyDelayCycles(10u * 48u); /* Delay 10us based on 48MHz clock */
ARM GAS  C:\Users\tkam627.UOA\AppData\Local\Temp\cco8XfIi.s 			page 8


 274:Generated_Source\PSoC5/cyfitter_cfg.c **** 	}
 275:Generated_Source\PSoC5/cyfitter_cfg.c **** 	/* If we ran out of time the PLL didn't lock so go to the error function */
 276:Generated_Source\PSoC5/cyfitter_cfg.c **** 	if (timeout == 0u)
 277:Generated_Source\PSoC5/cyfitter_cfg.c **** 	{
 278:Generated_Source\PSoC5/cyfitter_cfg.c **** 		CyClockStartupError(CYCLOCKSTART_PLL_ERROR);
 279:Generated_Source\PSoC5/cyfitter_cfg.c **** 	}
 280:Generated_Source\PSoC5/cyfitter_cfg.c **** 
 281:Generated_Source\PSoC5/cyfitter_cfg.c **** 	/* Configure Bus/Master Clock based on settings from Clock DWR */
 282:Generated_Source\PSoC5/cyfitter_cfg.c **** 	CY_SET_XTND_REG16((void CYFAR *)(CYREG_CLKDIST_MSTR0), 0x0100u);
 283:Generated_Source\PSoC5/cyfitter_cfg.c **** 	CY_SET_XTND_REG8((void CYFAR *)(CYREG_CLKDIST_MSTR0), 0x07u);
 284:Generated_Source\PSoC5/cyfitter_cfg.c **** 	CY_SET_XTND_REG8((void CYFAR *)(CYREG_CLKDIST_BCFG0), 0x00u);
 285:Generated_Source\PSoC5/cyfitter_cfg.c **** 	CY_SET_XTND_REG8((void CYFAR *)(CYREG_CLKDIST_BCFG2), 0x48u);
 286:Generated_Source\PSoC5/cyfitter_cfg.c **** 	CY_SET_XTND_REG8((void CYFAR *)(CYREG_CLKDIST_MSTR0), 0x00u);
 287:Generated_Source\PSoC5/cyfitter_cfg.c **** 	CY_SET_XTND_REG8((void CYFAR *)(CYREG_CLKDIST_LD), 0x02u);
 288:Generated_Source\PSoC5/cyfitter_cfg.c **** 	CY_SET_XTND_REG8((void CYFAR *)(CYREG_CLKDIST_DLY1), 0x04u);
 289:Generated_Source\PSoC5/cyfitter_cfg.c **** 
 290:Generated_Source\PSoC5/cyfitter_cfg.c **** 	CY_SET_XTND_REG8((void CYFAR *)(CYREG_PM_ACT_CFG2), ((CY_GET_XTND_REG8((void CYFAR *)CYREG_PM_ACT_
 291:Generated_Source\PSoC5/cyfitter_cfg.c **** 	CY_SET_XTND_REG8((void CYFAR *)(CYREG_PM_ACT_CFG1), ((CY_GET_XTND_REG8((void CYFAR *)CYREG_PM_ACT_
 292:Generated_Source\PSoC5/cyfitter_cfg.c **** 	CY_SET_XTND_REG8((void CYFAR *)(CYREG_PM_ACT_CFG0), ((CY_GET_XTND_REG8((void CYFAR *)CYREG_PM_ACT_
 293:Generated_Source\PSoC5/cyfitter_cfg.c **** }
 294:Generated_Source\PSoC5/cyfitter_cfg.c **** 
 295:Generated_Source\PSoC5/cyfitter_cfg.c **** 
 296:Generated_Source\PSoC5/cyfitter_cfg.c **** /* Analog API Functions */
 297:Generated_Source\PSoC5/cyfitter_cfg.c **** 
 298:Generated_Source\PSoC5/cyfitter_cfg.c **** 
 299:Generated_Source\PSoC5/cyfitter_cfg.c **** /*******************************************************************************
 300:Generated_Source\PSoC5/cyfitter_cfg.c **** * Function Name: AnalogSetDefault
 301:Generated_Source\PSoC5/cyfitter_cfg.c **** ********************************************************************************
 302:Generated_Source\PSoC5/cyfitter_cfg.c **** *
 303:Generated_Source\PSoC5/cyfitter_cfg.c **** * Summary:
 304:Generated_Source\PSoC5/cyfitter_cfg.c **** *  Sets up the analog portions of the chip to default values based on chip
 305:Generated_Source\PSoC5/cyfitter_cfg.c **** *  configuration options from the project.
 306:Generated_Source\PSoC5/cyfitter_cfg.c **** *
 307:Generated_Source\PSoC5/cyfitter_cfg.c **** * Parameters:
 308:Generated_Source\PSoC5/cyfitter_cfg.c **** *  void
 309:Generated_Source\PSoC5/cyfitter_cfg.c **** *
 310:Generated_Source\PSoC5/cyfitter_cfg.c **** * Return:
 311:Generated_Source\PSoC5/cyfitter_cfg.c **** *  void
 312:Generated_Source\PSoC5/cyfitter_cfg.c **** *
 313:Generated_Source\PSoC5/cyfitter_cfg.c **** *******************************************************************************/
 314:Generated_Source\PSoC5/cyfitter_cfg.c **** static void AnalogSetDefault(void);
 315:Generated_Source\PSoC5/cyfitter_cfg.c **** static void AnalogSetDefault(void)
 316:Generated_Source\PSoC5/cyfitter_cfg.c **** {
 124              		.loc 1 316 0
 125              		.cfi_startproc
 126              		@ args = 0, pretend = 0, frame = 0
 127              		@ frame_needed = 0, uses_anonymous_args = 0
 128              		@ link register save eliminated.
 317:Generated_Source\PSoC5/cyfitter_cfg.c **** 	uint8 bg_xover_inl_trim = CY_GET_XTND_REG8((void CYFAR *)(CYREG_FLSHID_MFG_CFG_BG_XOVER_INL_TRIM +
 129              		.loc 1 317 0
 130 0000 0A4B     		ldr	r3, .L10
 131 0002 1B78     		ldrb	r3, [r3]	@ zero_extendqisi2
 132 0004 DBB2     		uxtb	r3, r3
 133              	.LVL12:
 318:Generated_Source\PSoC5/cyfitter_cfg.c **** 	CY_SET_XTND_REG8((void CYFAR *)(CYREG_BG_DFT0), (bg_xover_inl_trim & 0x07u));
 134              		.loc 1 318 0
 135 0006 03F00701 		and	r1, r3, #7
ARM GAS  C:\Users\tkam627.UOA\AppData\Local\Temp\cco8XfIi.s 			page 9


 136 000a 094A     		ldr	r2, .L10+4
 137 000c 1170     		strb	r1, [r2]
 319:Generated_Source\PSoC5/cyfitter_cfg.c **** 	CY_SET_XTND_REG8((void CYFAR *)(CYREG_BG_DFT1), ((bg_xover_inl_trim >> 4) & 0x0Fu));
 138              		.loc 1 319 0
 139 000e 1B09     		lsrs	r3, r3, #4
 140              	.LVL13:
 141 0010 0132     		adds	r2, r2, #1
 142 0012 1370     		strb	r3, [r2]
 320:Generated_Source\PSoC5/cyfitter_cfg.c **** 	CY_SET_XTND_REG8((void CYFAR *)CYREG_DSM0_SW0, 0x10u);
 143              		.loc 1 320 0
 144 0014 1022     		movs	r2, #16
 145 0016 074B     		ldr	r3, .L10+8
 146 0018 1A70     		strb	r2, [r3]
 321:Generated_Source\PSoC5/cyfitter_cfg.c **** 	CY_SET_XTND_REG8((void CYFAR *)CYREG_BUS_SW0, 0x01u);
 147              		.loc 1 321 0
 148 001a 0122     		movs	r2, #1
 149 001c 5833     		adds	r3, r3, #88
 150 001e 1A70     		strb	r2, [r3]
 322:Generated_Source\PSoC5/cyfitter_cfg.c **** 	CY_SET_XTND_REG8((void CYFAR *)CYREG_PUMP_CR0, 0x44u);
 151              		.loc 1 322 0
 152 0020 4422     		movs	r2, #68
 153 0022 A3F2E223 		subw	r3, r3, #738
 154 0026 1A70     		strb	r2, [r3]
 155 0028 7047     		bx	lr
 156              	.L11:
 157 002a 00BF     		.align	2
 158              	.L10:
 159 002c CF010049 		.word	1224737231
 160 0030 6E580040 		.word	1073764462
 161 0034 005B0040 		.word	1073765120
 162              		.cfi_endproc
 163              	.LFE6:
 164              		.size	AnalogSetDefault, .-AnalogSetDefault
 165              		.section	.text.CYMEMZERO,"ax",%progbits
 166              		.align	2
 167              		.thumb
 168              		.thumb_func
 169              		.type	CYMEMZERO, %function
 170              	CYMEMZERO:
 171              	.LFB0:
  78:Generated_Source\PSoC5/cyfitter_cfg.c **** 	(void)memset(s, 0, n);
 172              		.loc 1 78 0
 173              		.cfi_startproc
 174              		@ args = 0, pretend = 0, frame = 0
 175              		@ frame_needed = 0, uses_anonymous_args = 0
 176              	.LVL14:
 177 0000 08B5     		push	{r3, lr}
 178              		.cfi_def_cfa_offset 8
 179              		.cfi_offset 3, -8
 180              		.cfi_offset 14, -4
  79:Generated_Source\PSoC5/cyfitter_cfg.c **** }
 181              		.loc 1 79 0
 182 0002 0A46     		mov	r2, r1
 183 0004 0021     		movs	r1, #0
 184              	.LVL15:
 185 0006 FFF7FEFF 		bl	memset
 186              	.LVL16:
ARM GAS  C:\Users\tkam627.UOA\AppData\Local\Temp\cco8XfIi.s 			page 10


 187 000a 08BD     		pop	{r3, pc}
 188              		.cfi_endproc
 189              	.LFE0:
 190              		.size	CYMEMZERO, .-CYMEMZERO
 191              		.section	.text.CYCONFIGCPY,"ax",%progbits
 192              		.align	2
 193              		.thumb
 194              		.thumb_func
 195              		.type	CYCONFIGCPY, %function
 196              	CYCONFIGCPY:
 197              	.LFB1:
  85:Generated_Source\PSoC5/cyfitter_cfg.c **** 	(void)memcpy(dest, src, n);
 198              		.loc 1 85 0
 199              		.cfi_startproc
 200              		@ args = 0, pretend = 0, frame = 0
 201              		@ frame_needed = 0, uses_anonymous_args = 0
 202              	.LVL17:
 203 0000 08B5     		push	{r3, lr}
 204              		.cfi_def_cfa_offset 8
 205              		.cfi_offset 3, -8
 206              		.cfi_offset 14, -4
  86:Generated_Source\PSoC5/cyfitter_cfg.c **** }
 207              		.loc 1 86 0
 208 0002 FFF7FEFF 		bl	memcpy
 209              	.LVL18:
 210 0006 08BD     		pop	{r3, pc}
 211              		.cfi_endproc
 212              	.LFE1:
 213              		.size	CYCONFIGCPY, .-CYCONFIGCPY
 214              		.section	.text.ClockSetup,"ax",%progbits
 215              		.align	2
 216              		.thumb
 217              		.thumb_func
 218              		.type	ClockSetup, %function
 219              	ClockSetup:
 220              	.LFB5:
 237:Generated_Source\PSoC5/cyfitter_cfg.c **** 	uint32 timeout;
 221              		.loc 1 237 0
 222              		.cfi_startproc
 223              		@ args = 0, pretend = 0, frame = 0
 224              		@ frame_needed = 0, uses_anonymous_args = 0
 225 0000 38B5     		push	{r3, r4, r5, lr}
 226              		.cfi_def_cfa_offset 16
 227              		.cfi_offset 3, -16
 228              		.cfi_offset 4, -12
 229              		.cfi_offset 5, -8
 230              		.cfi_offset 14, -4
 243:Generated_Source\PSoC5/cyfitter_cfg.c **** 	CY_SET_XTND_REG8((void CYFAR *)(CYREG_CLKDIST_DCFG0_CFG0 + 0x2u), 0x50u);
 231              		.loc 1 243 0
 232 0002 0024     		movs	r4, #0
 233 0004 344B     		ldr	r3, .L22
 234 0006 1C80     		strh	r4, [r3]	@ movhi
 244:Generated_Source\PSoC5/cyfitter_cfg.c **** 	CY_SET_XTND_REG16((void CYFAR *)(CYREG_CLKDIST_DCFG1_CFG0), 0x0004u);
 235              		.loc 1 244 0
 236 0008 5022     		movs	r2, #80
 237 000a 0233     		adds	r3, r3, #2
 238 000c 1A70     		strb	r2, [r3]
ARM GAS  C:\Users\tkam627.UOA\AppData\Local\Temp\cco8XfIi.s 			page 11


 245:Generated_Source\PSoC5/cyfitter_cfg.c **** 	CY_SET_XTND_REG8((void CYFAR *)(CYREG_CLKDIST_DCFG1_CFG0 + 0x2u), 0x18u);
 239              		.loc 1 245 0
 240 000e 0422     		movs	r2, #4
 241 0010 0233     		adds	r3, r3, #2
 242 0012 1A80     		strh	r2, [r3]	@ movhi
 246:Generated_Source\PSoC5/cyfitter_cfg.c **** 	CY_SET_XTND_REG16((void CYFAR *)(CYREG_CLKDIST_DCFG2_CFG0), 0x0004u);
 243              		.loc 1 246 0
 244 0014 1823     		movs	r3, #24
 245 0016 3149     		ldr	r1, .L22+4
 246 0018 0B70     		strb	r3, [r1]
 247:Generated_Source\PSoC5/cyfitter_cfg.c **** 	CY_SET_XTND_REG8((void CYFAR *)(CYREG_CLKDIST_DCFG2_CFG0 + 0x2u), 0x18u);
 247              		.loc 1 247 0
 248 001a 0231     		adds	r1, r1, #2
 249 001c 0A80     		strh	r2, [r1]	@ movhi
 248:Generated_Source\PSoC5/cyfitter_cfg.c **** 	CY_SET_XTND_REG16((void CYFAR *)(CYREG_CLKDIST_DCFG3_CFG0), 0x0004u);
 250              		.loc 1 248 0
 251 001e 0231     		adds	r1, r1, #2
 252 0020 0B70     		strb	r3, [r1]
 249:Generated_Source\PSoC5/cyfitter_cfg.c **** 	CY_SET_XTND_REG8((void CYFAR *)(CYREG_CLKDIST_DCFG3_CFG0 + 0x2u), 0x18u);
 253              		.loc 1 249 0
 254 0022 0231     		adds	r1, r1, #2
 255 0024 0A80     		strh	r2, [r1]	@ movhi
 250:Generated_Source\PSoC5/cyfitter_cfg.c **** 	CY_SET_XTND_REG16((void CYFAR *)(CYREG_CLKDIST_DCFG4_CFG0), 0x0019u);
 256              		.loc 1 250 0
 257 0026 0231     		adds	r1, r1, #2
 258 0028 0B70     		strb	r3, [r1]
 251:Generated_Source\PSoC5/cyfitter_cfg.c **** 	CY_SET_XTND_REG8((void CYFAR *)(CYREG_CLKDIST_DCFG4_CFG0 + 0x2u), 0x18u);
 259              		.loc 1 251 0
 260 002a 1925     		movs	r5, #25
 261 002c 0231     		adds	r1, r1, #2
 262 002e 0D80     		strh	r5, [r1]	@ movhi
 252:Generated_Source\PSoC5/cyfitter_cfg.c **** 
 263              		.loc 1 252 0
 264 0030 0231     		adds	r1, r1, #2
 265 0032 0B70     		strb	r3, [r1]
 255:Generated_Source\PSoC5/cyfitter_cfg.c **** 
 266              		.loc 1 255 0
 267 0034 2A49     		ldr	r1, .L22+8
 268 0036 2B48     		ldr	r0, .L22+12
 269 0038 FFF7FEFF 		bl	CYCONFIGCPY
 270              	.LVL19:
 258:Generated_Source\PSoC5/cyfitter_cfg.c **** 	CY_SET_XTND_REG8((void CYFAR *)(CYREG_CLKDIST_CR), 0x08u);
 271              		.loc 1 258 0
 272 003c 0222     		movs	r2, #2
 273 003e 2A4B     		ldr	r3, .L22+16
 274 0040 1A70     		strb	r2, [r3]
 259:Generated_Source\PSoC5/cyfitter_cfg.c **** 
 275              		.loc 1 259 0
 276 0042 0822     		movs	r2, #8
 277 0044 4FF04023 		mov	r3, #1073758208
 278 0048 1A70     		strb	r2, [r3]
 262:Generated_Source\PSoC5/cyfitter_cfg.c **** 	CY_SET_XTND_REG8((void CYFAR *)(CYREG_IMO_TR1), (CY_GET_XTND_REG8((void CYFAR *)CYREG_FLSHID_CUST_
 279              		.loc 1 262 0
 280 004a 0321     		movs	r1, #3
 281 004c 03F50073 		add	r3, r3, #512
 282 0050 1970     		strb	r1, [r3]
 263:Generated_Source\PSoC5/cyfitter_cfg.c **** 
ARM GAS  C:\Users\tkam627.UOA\AppData\Local\Temp\cco8XfIi.s 			page 12


 283              		.loc 1 263 0
 284 0052 264B     		ldr	r3, .L22+20
 285 0054 1B78     		ldrb	r3, [r3]	@ zero_extendqisi2
 286 0056 DBB2     		uxtb	r3, r3
 287 0058 2549     		ldr	r1, .L22+24
 288 005a 0B70     		strb	r3, [r1]
 266:Generated_Source\PSoC5/cyfitter_cfg.c **** 	CY_SET_XTND_REG16((void CYFAR *)(CYREG_FASTCLK_PLL_CFG0), 0x1251u);
 289              		.loc 1 266 0
 290 005c 254B     		ldr	r3, .L22+28
 291 005e 1A80     		strh	r2, [r3]	@ movhi
 267:Generated_Source\PSoC5/cyfitter_cfg.c **** 	/* Wait up to 250us for the PLL to lock */
 292              		.loc 1 267 0
 293 0060 41F25122 		movw	r2, #4689
 294 0064 023B     		subs	r3, r3, #2
 295 0066 1A80     		strh	r2, [r3]	@ movhi
 296              	.LVL20:
 270:Generated_Source\PSoC5/cyfitter_cfg.c **** 	{ 
 297              		.loc 1 270 0
 298 0068 0CE0     		b	.L17
 299              	.LVL21:
 300              	.L19:
 272:Generated_Source\PSoC5/cyfitter_cfg.c **** 		CyDelayCycles(10u * 48u); /* Delay 10us based on 48MHz clock */
 301              		.loc 1 272 0 discriminator 4
 302 006a 234B     		ldr	r3, .L22+32
 303 006c 1B78     		ldrb	r3, [r3]	@ zero_extendqisi2
 304 006e 03F00103 		and	r3, r3, #1
 305 0072 43EA4404 		orr	r4, r3, r4, lsl #1
 306              	.LVL22:
 307 0076 04F00304 		and	r4, r4, #3
 308              	.LVL23:
 273:Generated_Source\PSoC5/cyfitter_cfg.c **** 	}
 309              		.loc 1 273 0 discriminator 4
 310 007a 4FF4F070 		mov	r0, #480
 311 007e FFF7FEFF 		bl	CyDelayCycles
 312              	.LVL24:
 270:Generated_Source\PSoC5/cyfitter_cfg.c **** 	{ 
 313              		.loc 1 270 0 discriminator 4
 314 0082 013D     		subs	r5, r5, #1
 315              	.LVL25:
 316              	.L17:
 270:Generated_Source\PSoC5/cyfitter_cfg.c **** 	{ 
 317              		.loc 1 270 0 is_stmt 0 discriminator 1
 318 0084 0DB1     		cbz	r5, .L18
 270:Generated_Source\PSoC5/cyfitter_cfg.c **** 	{ 
 319              		.loc 1 270 0 discriminator 3
 320 0086 032C     		cmp	r4, #3
 321 0088 EFD1     		bne	.L19
 322              	.L18:
 276:Generated_Source\PSoC5/cyfitter_cfg.c **** 	{
 323              		.loc 1 276 0 is_stmt 1
 324 008a 15B9     		cbnz	r5, .L20
 278:Generated_Source\PSoC5/cyfitter_cfg.c **** 	}
 325              		.loc 1 278 0
 326 008c 0320     		movs	r0, #3
 327 008e FFF7FEFF 		bl	CyClockStartupError
 328              	.LVL26:
 329              	.L20:
ARM GAS  C:\Users\tkam627.UOA\AppData\Local\Temp\cco8XfIi.s 			page 13


 282:Generated_Source\PSoC5/cyfitter_cfg.c **** 	CY_SET_XTND_REG8((void CYFAR *)(CYREG_CLKDIST_MSTR0), 0x07u);
 330              		.loc 1 282 0
 331 0092 1A4B     		ldr	r3, .L22+36
 332 0094 4FF48072 		mov	r2, #256
 333 0098 1A80     		strh	r2, [r3]	@ movhi
 283:Generated_Source\PSoC5/cyfitter_cfg.c **** 	CY_SET_XTND_REG8((void CYFAR *)(CYREG_CLKDIST_BCFG0), 0x00u);
 334              		.loc 1 283 0
 335 009a 0722     		movs	r2, #7
 336 009c 1A70     		strb	r2, [r3]
 284:Generated_Source\PSoC5/cyfitter_cfg.c **** 	CY_SET_XTND_REG8((void CYFAR *)(CYREG_CLKDIST_BCFG2), 0x48u);
 337              		.loc 1 284 0
 338 009e 0022     		movs	r2, #0
 339 00a0 1749     		ldr	r1, .L22+40
 340 00a2 0A70     		strb	r2, [r1]
 285:Generated_Source\PSoC5/cyfitter_cfg.c **** 	CY_SET_XTND_REG8((void CYFAR *)(CYREG_CLKDIST_MSTR0), 0x00u);
 341              		.loc 1 285 0
 342 00a4 4820     		movs	r0, #72
 343 00a6 0231     		adds	r1, r1, #2
 344 00a8 0870     		strb	r0, [r1]
 286:Generated_Source\PSoC5/cyfitter_cfg.c **** 	CY_SET_XTND_REG8((void CYFAR *)(CYREG_CLKDIST_LD), 0x02u);
 345              		.loc 1 286 0
 346 00aa 1A70     		strb	r2, [r3]
 287:Generated_Source\PSoC5/cyfitter_cfg.c **** 	CY_SET_XTND_REG8((void CYFAR *)(CYREG_CLKDIST_DLY1), 0x04u);
 347              		.loc 1 287 0
 348 00ac 0222     		movs	r2, #2
 349 00ae 033B     		subs	r3, r3, #3
 350 00b0 1A70     		strb	r2, [r3]
 288:Generated_Source\PSoC5/cyfitter_cfg.c **** 
 351              		.loc 1 288 0
 352 00b2 0422     		movs	r2, #4
 353 00b4 0A33     		adds	r3, r3, #10
 354 00b6 1A70     		strb	r2, [r3]
 290:Generated_Source\PSoC5/cyfitter_cfg.c **** 	CY_SET_XTND_REG8((void CYFAR *)(CYREG_PM_ACT_CFG1), ((CY_GET_XTND_REG8((void CYFAR *)CYREG_PM_ACT_
 355              		.loc 1 290 0
 356 00b8 124A     		ldr	r2, .L22+44
 357 00ba 1378     		ldrb	r3, [r2]	@ zero_extendqisi2
 358 00bc 43F01F03 		orr	r3, r3, #31
 359 00c0 1370     		strb	r3, [r2]
 291:Generated_Source\PSoC5/cyfitter_cfg.c **** 	CY_SET_XTND_REG8((void CYFAR *)(CYREG_PM_ACT_CFG0), ((CY_GET_XTND_REG8((void CYFAR *)CYREG_PM_ACT_
 360              		.loc 1 291 0
 361 00c2 013A     		subs	r2, r2, #1
 362 00c4 1378     		ldrb	r3, [r2]	@ zero_extendqisi2
 363 00c6 43F00103 		orr	r3, r3, #1
 364 00ca 1370     		strb	r3, [r2]
 292:Generated_Source\PSoC5/cyfitter_cfg.c **** }
 365              		.loc 1 292 0
 366 00cc 013A     		subs	r2, r2, #1
 367 00ce 1378     		ldrb	r3, [r2]	@ zero_extendqisi2
 368 00d0 43F08003 		orr	r3, r3, #128
 369 00d4 1370     		strb	r3, [r2]
 370 00d6 38BD     		pop	{r3, r4, r5, pc}
 371              	.LVL27:
 372              	.L23:
 373              		.align	2
 374              	.L22:
 375 00d8 80400040 		.word	1073758336
 376 00dc 86400040 		.word	1073758342
ARM GAS  C:\Users\tkam627.UOA\AppData\Local\Temp\cco8XfIi.s 			page 14


 377 00e0 1C060048 		.word	1207961116
 378 00e4 00410040 		.word	1073758464
 379 00e8 00430040 		.word	1073758976
 380 00ec 08010049 		.word	1224737032
 381 00f0 A1460040 		.word	1073759905
 382 00f4 22420040 		.word	1073758754
 383 00f8 25420040 		.word	1073758757
 384 00fc 04400040 		.word	1073758212
 385 0100 06400040 		.word	1073758214
 386 0104 A2430040 		.word	1073759138
 387              		.cfi_endproc
 388              	.LFE5:
 389              		.size	ClockSetup, .-ClockSetup
 390              		.section	.text.SetAnalogRoutingPumps,"ax",%progbits
 391              		.align	2
 392              		.global	SetAnalogRoutingPumps
 393              		.thumb
 394              		.thumb_func
 395              		.type	SetAnalogRoutingPumps, %function
 396              	SetAnalogRoutingPumps:
 397              	.LFB7:
 323:Generated_Source\PSoC5/cyfitter_cfg.c **** }
 324:Generated_Source\PSoC5/cyfitter_cfg.c **** 
 325:Generated_Source\PSoC5/cyfitter_cfg.c **** 
 326:Generated_Source\PSoC5/cyfitter_cfg.c **** /*******************************************************************************
 327:Generated_Source\PSoC5/cyfitter_cfg.c **** * Function Name: SetAnalogRoutingPumps
 328:Generated_Source\PSoC5/cyfitter_cfg.c **** ********************************************************************************
 329:Generated_Source\PSoC5/cyfitter_cfg.c **** *
 330:Generated_Source\PSoC5/cyfitter_cfg.c **** * Summary:
 331:Generated_Source\PSoC5/cyfitter_cfg.c **** * Enables or disables the analog pumps feeding analog routing switches.
 332:Generated_Source\PSoC5/cyfitter_cfg.c **** * Intended to be called at startup, based on the Vdda system configuration;
 333:Generated_Source\PSoC5/cyfitter_cfg.c **** * may be called during operation when the user informs us that the Vdda voltage
 334:Generated_Source\PSoC5/cyfitter_cfg.c **** * crossed the pump threshold.
 335:Generated_Source\PSoC5/cyfitter_cfg.c **** *
 336:Generated_Source\PSoC5/cyfitter_cfg.c **** * Parameters:
 337:Generated_Source\PSoC5/cyfitter_cfg.c **** *  enabled - 1 to enable the pumps, 0 to disable the pumps
 338:Generated_Source\PSoC5/cyfitter_cfg.c **** *
 339:Generated_Source\PSoC5/cyfitter_cfg.c **** * Return:
 340:Generated_Source\PSoC5/cyfitter_cfg.c **** *  void
 341:Generated_Source\PSoC5/cyfitter_cfg.c **** *
 342:Generated_Source\PSoC5/cyfitter_cfg.c **** *******************************************************************************/
 343:Generated_Source\PSoC5/cyfitter_cfg.c **** void SetAnalogRoutingPumps(uint8 enabled)
 344:Generated_Source\PSoC5/cyfitter_cfg.c **** {
 398              		.loc 1 344 0
 399              		.cfi_startproc
 400              		@ args = 0, pretend = 0, frame = 0
 401              		@ frame_needed = 0, uses_anonymous_args = 0
 402              		@ link register save eliminated.
 403              	.LVL28:
 345:Generated_Source\PSoC5/cyfitter_cfg.c **** 	uint8 regValue = CY_GET_XTND_REG8((void CYFAR *)CYREG_PUMP_CR0);
 404              		.loc 1 345 0
 405 0000 054B     		ldr	r3, .L27
 406 0002 1B78     		ldrb	r3, [r3]	@ zero_extendqisi2
 407 0004 DBB2     		uxtb	r3, r3
 408              	.LVL29:
 346:Generated_Source\PSoC5/cyfitter_cfg.c **** 	if (enabled != 0u)
 409              		.loc 1 346 0
ARM GAS  C:\Users\tkam627.UOA\AppData\Local\Temp\cco8XfIi.s 			page 15


 410 0006 10B1     		cbz	r0, .L25
 347:Generated_Source\PSoC5/cyfitter_cfg.c **** 	{
 348:Generated_Source\PSoC5/cyfitter_cfg.c **** 		regValue |= 0x22u;
 411              		.loc 1 348 0
 412 0008 43F02203 		orr	r3, r3, #34
 413              	.LVL30:
 414 000c 01E0     		b	.L26
 415              	.L25:
 349:Generated_Source\PSoC5/cyfitter_cfg.c **** 	}
 350:Generated_Source\PSoC5/cyfitter_cfg.c **** 	else
 351:Generated_Source\PSoC5/cyfitter_cfg.c **** 	{
 352:Generated_Source\PSoC5/cyfitter_cfg.c **** 		regValue &= (uint8)~0x22u;
 416              		.loc 1 352 0
 417 000e 03F0DD03 		and	r3, r3, #221
 418              	.LVL31:
 419              	.L26:
 353:Generated_Source\PSoC5/cyfitter_cfg.c **** 	}
 354:Generated_Source\PSoC5/cyfitter_cfg.c **** 	CY_SET_XTND_REG8((void CYFAR *)CYREG_PUMP_CR0, regValue);
 420              		.loc 1 354 0
 421 0012 014A     		ldr	r2, .L27
 422 0014 1370     		strb	r3, [r2]
 423 0016 7047     		bx	lr
 424              	.L28:
 425              		.align	2
 426              	.L27:
 427 0018 76580040 		.word	1073764470
 428              		.cfi_endproc
 429              	.LFE7:
 430              		.size	SetAnalogRoutingPumps, .-SetAnalogRoutingPumps
 431              		.section	.text.AMux_Set,"ax",%progbits
 432              		.align	2
 433              		.global	AMux_Set
 434              		.thumb
 435              		.thumb_func
 436              		.type	AMux_Set, %function
 437              	AMux_Set:
 438              	.LFB8:
 355:Generated_Source\PSoC5/cyfitter_cfg.c **** }
 356:Generated_Source\PSoC5/cyfitter_cfg.c **** 
 357:Generated_Source\PSoC5/cyfitter_cfg.c **** 
 358:Generated_Source\PSoC5/cyfitter_cfg.c **** #define CY_AMUX_UNUSED CYREG_BOOST_SR
 359:Generated_Source\PSoC5/cyfitter_cfg.c **** /* This is an implementation detail of the AMux. Code that depends on it may be
 360:Generated_Source\PSoC5/cyfitter_cfg.c ****    incompatible with other versions of PSoC Creator. */
 361:Generated_Source\PSoC5/cyfitter_cfg.c **** uint8 CYXDATA * const CYCODE AMux__addrTable[12] = {
 362:Generated_Source\PSoC5/cyfitter_cfg.c **** 	(uint8 CYXDATA *)CYREG_PRT2_AG, (uint8 CYXDATA *)CYREG_DSM0_SW0, 
 363:Generated_Source\PSoC5/cyfitter_cfg.c **** 	(uint8 CYXDATA *)CYREG_PRT2_AG, (uint8 CYXDATA *)CYREG_DSM0_SW0, 
 364:Generated_Source\PSoC5/cyfitter_cfg.c **** 	(uint8 CYXDATA *)CYREG_PRT1_AG, (uint8 CYXDATA *)CYREG_DSM0_SW0, 
 365:Generated_Source\PSoC5/cyfitter_cfg.c **** 	(uint8 CYXDATA *)CYREG_PRT0_AG, (uint8 CYXDATA *)CY_AMUX_UNUSED, 
 366:Generated_Source\PSoC5/cyfitter_cfg.c **** 	(uint8 CYXDATA *)CYREG_PRT15_AG, (uint8 CYXDATA *)CYREG_DSM0_SW0, 
 367:Generated_Source\PSoC5/cyfitter_cfg.c **** 	(uint8 CYXDATA *)CYREG_PRT15_AG, (uint8 CYXDATA *)CYREG_BUS_SW0, 
 368:Generated_Source\PSoC5/cyfitter_cfg.c **** };
 369:Generated_Source\PSoC5/cyfitter_cfg.c **** 
 370:Generated_Source\PSoC5/cyfitter_cfg.c **** /* This is an implementation detail of the AMux. Code that depends on it may be
 371:Generated_Source\PSoC5/cyfitter_cfg.c ****    incompatible with other versions of PSoC Creator. */
 372:Generated_Source\PSoC5/cyfitter_cfg.c **** const uint8 CYCODE AMux__maskTable[12] = {
 373:Generated_Source\PSoC5/cyfitter_cfg.c **** 	0x40u, 0x04u, 
 374:Generated_Source\PSoC5/cyfitter_cfg.c **** 	0x80u, 0x08u, 
ARM GAS  C:\Users\tkam627.UOA\AppData\Local\Temp\cco8XfIi.s 			page 16


 375:Generated_Source\PSoC5/cyfitter_cfg.c **** 	0x10u, 0x01u, 
 376:Generated_Source\PSoC5/cyfitter_cfg.c **** 	0x10u, 0x00u, 
 377:Generated_Source\PSoC5/cyfitter_cfg.c **** 	0x20u, 0x02u, 
 378:Generated_Source\PSoC5/cyfitter_cfg.c **** 	0x01u, 0x10u, 
 379:Generated_Source\PSoC5/cyfitter_cfg.c **** };
 380:Generated_Source\PSoC5/cyfitter_cfg.c **** 
 381:Generated_Source\PSoC5/cyfitter_cfg.c **** /*******************************************************************************
 382:Generated_Source\PSoC5/cyfitter_cfg.c **** * Function Name: AMux_Set
 383:Generated_Source\PSoC5/cyfitter_cfg.c **** ********************************************************************************
 384:Generated_Source\PSoC5/cyfitter_cfg.c **** * Summary:
 385:Generated_Source\PSoC5/cyfitter_cfg.c **** *  This function is used to set a particular channel as active on the AMux.
 386:Generated_Source\PSoC5/cyfitter_cfg.c **** *
 387:Generated_Source\PSoC5/cyfitter_cfg.c **** * Parameters:  
 388:Generated_Source\PSoC5/cyfitter_cfg.c **** *   channel - The mux channel input to set as active
 389:Generated_Source\PSoC5/cyfitter_cfg.c **** *
 390:Generated_Source\PSoC5/cyfitter_cfg.c **** * Return:
 391:Generated_Source\PSoC5/cyfitter_cfg.c **** *   void
 392:Generated_Source\PSoC5/cyfitter_cfg.c **** *
 393:Generated_Source\PSoC5/cyfitter_cfg.c **** *******************************************************************************/
 394:Generated_Source\PSoC5/cyfitter_cfg.c **** void AMux_Set(uint8 channel)
 395:Generated_Source\PSoC5/cyfitter_cfg.c **** {
 439              		.loc 1 395 0
 440              		.cfi_startproc
 441              		@ args = 0, pretend = 0, frame = 0
 442              		@ frame_needed = 0, uses_anonymous_args = 0
 443              		@ link register save eliminated.
 444              	.LVL32:
 396:Generated_Source\PSoC5/cyfitter_cfg.c **** 	if (channel < 6)
 445              		.loc 1 396 0
 446 0000 0528     		cmp	r0, #5
 447 0002 16D8     		bhi	.L33
 395:Generated_Source\PSoC5/cyfitter_cfg.c **** 	if (channel < 6)
 448              		.loc 1 395 0
 449 0004 10B4     		push	{r4}
 450              		.cfi_def_cfa_offset 4
 451              		.cfi_offset 4, -4
 397:Generated_Source\PSoC5/cyfitter_cfg.c **** 	{
 398:Generated_Source\PSoC5/cyfitter_cfg.c **** 		channel += channel;
 452              		.loc 1 398 0
 453 0006 4000     		lsls	r0, r0, #1
 454              	.LVL33:
 455 0008 C0B2     		uxtb	r0, r0
 456              	.LVL34:
 399:Generated_Source\PSoC5/cyfitter_cfg.c **** 		*AMux__addrTable[channel] |= AMux__maskTable[channel];
 457              		.loc 1 399 0
 458 000a 0A4B     		ldr	r3, .L34
 459 000c 53F82010 		ldr	r1, [r3, r0, lsl #2]
 460 0010 1A18     		adds	r2, r3, r0
 461 0012 92F83040 		ldrb	r4, [r2, #48]	@ zero_extendqisi2
 462 0016 0A78     		ldrb	r2, [r1]	@ zero_extendqisi2
 463 0018 2243     		orrs	r2, r2, r4
 464 001a 0A70     		strb	r2, [r1]
 400:Generated_Source\PSoC5/cyfitter_cfg.c **** 		channel++;
 465              		.loc 1 400 0
 466 001c 0130     		adds	r0, r0, #1
 467              	.LVL35:
 468 001e C0B2     		uxtb	r0, r0
ARM GAS  C:\Users\tkam627.UOA\AppData\Local\Temp\cco8XfIi.s 			page 17


 469              	.LVL36:
 401:Generated_Source\PSoC5/cyfitter_cfg.c **** 		*AMux__addrTable[channel] |= AMux__maskTable[channel];
 470              		.loc 1 401 0
 471 0020 53F82020 		ldr	r2, [r3, r0, lsl #2]
 472 0024 1844     		add	r0, r0, r3
 473              	.LVL37:
 474 0026 90F83010 		ldrb	r1, [r0, #48]	@ zero_extendqisi2
 475 002a 1378     		ldrb	r3, [r2]	@ zero_extendqisi2
 476 002c 0B43     		orrs	r3, r3, r1
 477 002e 1370     		strb	r3, [r2]
 402:Generated_Source\PSoC5/cyfitter_cfg.c **** 	}
 403:Generated_Source\PSoC5/cyfitter_cfg.c **** }
 478              		.loc 1 403 0
 479 0030 10BC     		pop	{r4}
 480              		.cfi_restore 4
 481              		.cfi_def_cfa_offset 0
 482              	.LVL38:
 483              	.L33:
 484 0032 7047     		bx	lr
 485              	.L35:
 486              		.align	2
 487              	.L34:
 488 0034 00000000 		.word	.LANCHOR0
 489              		.cfi_endproc
 490              	.LFE8:
 491              		.size	AMux_Set, .-AMux_Set
 492              		.section	.text.AMux_Unset,"ax",%progbits
 493              		.align	2
 494              		.global	AMux_Unset
 495              		.thumb
 496              		.thumb_func
 497              		.type	AMux_Unset, %function
 498              	AMux_Unset:
 499              	.LFB9:
 404:Generated_Source\PSoC5/cyfitter_cfg.c **** 
 405:Generated_Source\PSoC5/cyfitter_cfg.c **** /*******************************************************************************
 406:Generated_Source\PSoC5/cyfitter_cfg.c **** * Function Name: AMux_Unset
 407:Generated_Source\PSoC5/cyfitter_cfg.c **** ********************************************************************************
 408:Generated_Source\PSoC5/cyfitter_cfg.c **** * Summary:
 409:Generated_Source\PSoC5/cyfitter_cfg.c **** *  This function is used to clear a particular channel from being active on the
 410:Generated_Source\PSoC5/cyfitter_cfg.c **** *  AMux.
 411:Generated_Source\PSoC5/cyfitter_cfg.c **** *
 412:Generated_Source\PSoC5/cyfitter_cfg.c **** * Parameters:  
 413:Generated_Source\PSoC5/cyfitter_cfg.c **** *   channel - The mux channel input to mark inactive
 414:Generated_Source\PSoC5/cyfitter_cfg.c **** *
 415:Generated_Source\PSoC5/cyfitter_cfg.c **** * Return:
 416:Generated_Source\PSoC5/cyfitter_cfg.c **** *   void
 417:Generated_Source\PSoC5/cyfitter_cfg.c **** *
 418:Generated_Source\PSoC5/cyfitter_cfg.c **** *******************************************************************************/
 419:Generated_Source\PSoC5/cyfitter_cfg.c **** void AMux_Unset(uint8 channel)
 420:Generated_Source\PSoC5/cyfitter_cfg.c **** {
 500              		.loc 1 420 0
 501              		.cfi_startproc
 502              		@ args = 0, pretend = 0, frame = 0
 503              		@ frame_needed = 0, uses_anonymous_args = 0
 504              		@ link register save eliminated.
 505              	.LVL39:
ARM GAS  C:\Users\tkam627.UOA\AppData\Local\Temp\cco8XfIi.s 			page 18


 421:Generated_Source\PSoC5/cyfitter_cfg.c **** 	if (channel < 6)
 506              		.loc 1 421 0
 507 0000 0528     		cmp	r0, #5
 508 0002 18D8     		bhi	.L40
 420:Generated_Source\PSoC5/cyfitter_cfg.c **** 	if (channel < 6)
 509              		.loc 1 420 0
 510 0004 10B4     		push	{r4}
 511              		.cfi_def_cfa_offset 4
 512              		.cfi_offset 4, -4
 422:Generated_Source\PSoC5/cyfitter_cfg.c **** 	{
 423:Generated_Source\PSoC5/cyfitter_cfg.c **** 		channel += channel;
 513              		.loc 1 423 0
 514 0006 4000     		lsls	r0, r0, #1
 515              	.LVL40:
 516 0008 C0B2     		uxtb	r0, r0
 517              	.LVL41:
 424:Generated_Source\PSoC5/cyfitter_cfg.c **** 		*AMux__addrTable[channel] &= (uint8)~AMux__maskTable[channel];
 518              		.loc 1 424 0
 519 000a 0B4B     		ldr	r3, .L41
 520 000c 53F82010 		ldr	r1, [r3, r0, lsl #2]
 521 0010 1A18     		adds	r2, r3, r0
 522 0012 92F83040 		ldrb	r4, [r2, #48]	@ zero_extendqisi2
 523 0016 0A78     		ldrb	r2, [r1]	@ zero_extendqisi2
 524 0018 22EA0402 		bic	r2, r2, r4
 525 001c 0A70     		strb	r2, [r1]
 425:Generated_Source\PSoC5/cyfitter_cfg.c **** 		channel++;
 526              		.loc 1 425 0
 527 001e 0130     		adds	r0, r0, #1
 528              	.LVL42:
 529 0020 C0B2     		uxtb	r0, r0
 530              	.LVL43:
 426:Generated_Source\PSoC5/cyfitter_cfg.c **** 		*AMux__addrTable[channel] &= (uint8)~AMux__maskTable[channel];
 531              		.loc 1 426 0
 532 0022 53F82020 		ldr	r2, [r3, r0, lsl #2]
 533 0026 1844     		add	r0, r0, r3
 534              	.LVL44:
 535 0028 90F83010 		ldrb	r1, [r0, #48]	@ zero_extendqisi2
 536 002c 1378     		ldrb	r3, [r2]	@ zero_extendqisi2
 537 002e 23EA0103 		bic	r3, r3, r1
 538 0032 1370     		strb	r3, [r2]
 427:Generated_Source\PSoC5/cyfitter_cfg.c **** 	}
 428:Generated_Source\PSoC5/cyfitter_cfg.c **** }
 539              		.loc 1 428 0
 540 0034 10BC     		pop	{r4}
 541              		.cfi_restore 4
 542              		.cfi_def_cfa_offset 0
 543              	.LVL45:
 544              	.L40:
 545 0036 7047     		bx	lr
 546              	.L42:
 547              		.align	2
 548              	.L41:
 549 0038 00000000 		.word	.LANCHOR0
 550              		.cfi_endproc
 551              	.LFE9:
 552              		.size	AMux_Unset, .-AMux_Unset
 553              		.section	.text.ADC_DelSig_1_AMux_Set,"ax",%progbits
ARM GAS  C:\Users\tkam627.UOA\AppData\Local\Temp\cco8XfIi.s 			page 19


 554              		.align	2
 555              		.global	ADC_DelSig_1_AMux_Set
 556              		.thumb
 557              		.thumb_func
 558              		.type	ADC_DelSig_1_AMux_Set, %function
 559              	ADC_DelSig_1_AMux_Set:
 560              	.LFB10:
 429:Generated_Source\PSoC5/cyfitter_cfg.c **** 
 430:Generated_Source\PSoC5/cyfitter_cfg.c **** /* This is an implementation detail of the AMux. Code that depends on it may be
 431:Generated_Source\PSoC5/cyfitter_cfg.c ****    incompatible with other versions of PSoC Creator. */
 432:Generated_Source\PSoC5/cyfitter_cfg.c **** uint8 CYXDATA * const CYCODE ADC_DelSig_1_AMux__addrTable[2] = {
 433:Generated_Source\PSoC5/cyfitter_cfg.c **** 	(uint8 CYXDATA *)CYREG_DSM0_SW3, 
 434:Generated_Source\PSoC5/cyfitter_cfg.c **** 	(uint8 CYXDATA *)CY_AMUX_UNUSED, 
 435:Generated_Source\PSoC5/cyfitter_cfg.c **** };
 436:Generated_Source\PSoC5/cyfitter_cfg.c **** 
 437:Generated_Source\PSoC5/cyfitter_cfg.c **** /* This is an implementation detail of the AMux. Code that depends on it may be
 438:Generated_Source\PSoC5/cyfitter_cfg.c ****    incompatible with other versions of PSoC Creator. */
 439:Generated_Source\PSoC5/cyfitter_cfg.c **** const uint8 CYCODE ADC_DelSig_1_AMux__maskTable[2] = {
 440:Generated_Source\PSoC5/cyfitter_cfg.c **** 	0x40u, 
 441:Generated_Source\PSoC5/cyfitter_cfg.c **** 	0x00u, 
 442:Generated_Source\PSoC5/cyfitter_cfg.c **** };
 443:Generated_Source\PSoC5/cyfitter_cfg.c **** 
 444:Generated_Source\PSoC5/cyfitter_cfg.c **** /*******************************************************************************
 445:Generated_Source\PSoC5/cyfitter_cfg.c **** * Function Name: ADC_DelSig_1_AMux_Set
 446:Generated_Source\PSoC5/cyfitter_cfg.c **** ********************************************************************************
 447:Generated_Source\PSoC5/cyfitter_cfg.c **** * Summary:
 448:Generated_Source\PSoC5/cyfitter_cfg.c **** *  This function is used to set a particular channel as active on the AMux.
 449:Generated_Source\PSoC5/cyfitter_cfg.c **** *
 450:Generated_Source\PSoC5/cyfitter_cfg.c **** * Parameters:  
 451:Generated_Source\PSoC5/cyfitter_cfg.c **** *   channel - The mux channel input to set as active
 452:Generated_Source\PSoC5/cyfitter_cfg.c **** *
 453:Generated_Source\PSoC5/cyfitter_cfg.c **** * Return:
 454:Generated_Source\PSoC5/cyfitter_cfg.c **** *   void
 455:Generated_Source\PSoC5/cyfitter_cfg.c **** *
 456:Generated_Source\PSoC5/cyfitter_cfg.c **** *******************************************************************************/
 457:Generated_Source\PSoC5/cyfitter_cfg.c **** void ADC_DelSig_1_AMux_Set(uint8 channel)
 458:Generated_Source\PSoC5/cyfitter_cfg.c **** {
 561              		.loc 1 458 0
 562              		.cfi_startproc
 563              		@ args = 0, pretend = 0, frame = 0
 564              		@ frame_needed = 0, uses_anonymous_args = 0
 565              		@ link register save eliminated.
 566              	.LVL46:
 459:Generated_Source\PSoC5/cyfitter_cfg.c **** 	if (channel < 2)
 567              		.loc 1 459 0
 568 0000 0128     		cmp	r0, #1
 569 0002 09D8     		bhi	.L43
 460:Generated_Source\PSoC5/cyfitter_cfg.c **** 	{
 461:Generated_Source\PSoC5/cyfitter_cfg.c **** 		*ADC_DelSig_1_AMux__addrTable[channel] |= ADC_DelSig_1_AMux__maskTable[channel];
 570              		.loc 1 461 0
 571 0004 054B     		ldr	r3, .L45
 572 0006 03EB8002 		add	r2, r3, r0, lsl #2
 573 000a D26B     		ldr	r2, [r2, #60]
 574 000c 1844     		add	r0, r0, r3
 575              	.LVL47:
 576 000e 90F84410 		ldrb	r1, [r0, #68]	@ zero_extendqisi2
 577 0012 1378     		ldrb	r3, [r2]	@ zero_extendqisi2
ARM GAS  C:\Users\tkam627.UOA\AppData\Local\Temp\cco8XfIi.s 			page 20


 578 0014 0B43     		orrs	r3, r3, r1
 579 0016 1370     		strb	r3, [r2]
 580              	.L43:
 581 0018 7047     		bx	lr
 582              	.L46:
 583 001a 00BF     		.align	2
 584              	.L45:
 585 001c 00000000 		.word	.LANCHOR0
 586              		.cfi_endproc
 587              	.LFE10:
 588              		.size	ADC_DelSig_1_AMux_Set, .-ADC_DelSig_1_AMux_Set
 589              		.section	.text.ADC_DelSig_1_AMux_Unset,"ax",%progbits
 590              		.align	2
 591              		.global	ADC_DelSig_1_AMux_Unset
 592              		.thumb
 593              		.thumb_func
 594              		.type	ADC_DelSig_1_AMux_Unset, %function
 595              	ADC_DelSig_1_AMux_Unset:
 596              	.LFB11:
 462:Generated_Source\PSoC5/cyfitter_cfg.c **** 	}
 463:Generated_Source\PSoC5/cyfitter_cfg.c **** }
 464:Generated_Source\PSoC5/cyfitter_cfg.c **** 
 465:Generated_Source\PSoC5/cyfitter_cfg.c **** /*******************************************************************************
 466:Generated_Source\PSoC5/cyfitter_cfg.c **** * Function Name: ADC_DelSig_1_AMux_Unset
 467:Generated_Source\PSoC5/cyfitter_cfg.c **** ********************************************************************************
 468:Generated_Source\PSoC5/cyfitter_cfg.c **** * Summary:
 469:Generated_Source\PSoC5/cyfitter_cfg.c **** *  This function is used to clear a particular channel from being active on the
 470:Generated_Source\PSoC5/cyfitter_cfg.c **** *  AMux.
 471:Generated_Source\PSoC5/cyfitter_cfg.c **** *
 472:Generated_Source\PSoC5/cyfitter_cfg.c **** * Parameters:  
 473:Generated_Source\PSoC5/cyfitter_cfg.c **** *   channel - The mux channel input to mark inactive
 474:Generated_Source\PSoC5/cyfitter_cfg.c **** *
 475:Generated_Source\PSoC5/cyfitter_cfg.c **** * Return:
 476:Generated_Source\PSoC5/cyfitter_cfg.c **** *   void
 477:Generated_Source\PSoC5/cyfitter_cfg.c **** *
 478:Generated_Source\PSoC5/cyfitter_cfg.c **** *******************************************************************************/
 479:Generated_Source\PSoC5/cyfitter_cfg.c **** void ADC_DelSig_1_AMux_Unset(uint8 channel)
 480:Generated_Source\PSoC5/cyfitter_cfg.c **** {
 597              		.loc 1 480 0
 598              		.cfi_startproc
 599              		@ args = 0, pretend = 0, frame = 0
 600              		@ frame_needed = 0, uses_anonymous_args = 0
 601              		@ link register save eliminated.
 602              	.LVL48:
 481:Generated_Source\PSoC5/cyfitter_cfg.c **** 	if (channel < 2)
 603              		.loc 1 481 0
 604 0000 0128     		cmp	r0, #1
 605 0002 0AD8     		bhi	.L47
 482:Generated_Source\PSoC5/cyfitter_cfg.c **** 	{
 483:Generated_Source\PSoC5/cyfitter_cfg.c **** 		*ADC_DelSig_1_AMux__addrTable[channel] &= (uint8)~ADC_DelSig_1_AMux__maskTable[channel];
 606              		.loc 1 483 0
 607 0004 054B     		ldr	r3, .L49
 608 0006 03EB8002 		add	r2, r3, r0, lsl #2
 609 000a D26B     		ldr	r2, [r2, #60]
 610 000c 1844     		add	r0, r0, r3
 611              	.LVL49:
 612 000e 90F84410 		ldrb	r1, [r0, #68]	@ zero_extendqisi2
ARM GAS  C:\Users\tkam627.UOA\AppData\Local\Temp\cco8XfIi.s 			page 21


 613 0012 1378     		ldrb	r3, [r2]	@ zero_extendqisi2
 614 0014 23EA0103 		bic	r3, r3, r1
 615 0018 1370     		strb	r3, [r2]
 616              	.L47:
 617 001a 7047     		bx	lr
 618              	.L50:
 619              		.align	2
 620              	.L49:
 621 001c 00000000 		.word	.LANCHOR0
 622              		.cfi_endproc
 623              	.LFE11:
 624              		.size	ADC_DelSig_1_AMux_Unset, .-ADC_DelSig_1_AMux_Unset
 625              		.section	.text.cyfitter_cfg,"ax",%progbits
 626              		.align	2
 627              		.global	cyfitter_cfg
 628              		.thumb
 629              		.thumb_func
 630              		.type	cyfitter_cfg, %function
 631              	cyfitter_cfg:
 632              	.LFB12:
 484:Generated_Source\PSoC5/cyfitter_cfg.c **** 	}
 485:Generated_Source\PSoC5/cyfitter_cfg.c **** }
 486:Generated_Source\PSoC5/cyfitter_cfg.c **** 
 487:Generated_Source\PSoC5/cyfitter_cfg.c **** 
 488:Generated_Source\PSoC5/cyfitter_cfg.c **** 
 489:Generated_Source\PSoC5/cyfitter_cfg.c **** /*******************************************************************************
 490:Generated_Source\PSoC5/cyfitter_cfg.c **** * Function Name: cyfitter_cfg
 491:Generated_Source\PSoC5/cyfitter_cfg.c **** ********************************************************************************
 492:Generated_Source\PSoC5/cyfitter_cfg.c **** * Summary:
 493:Generated_Source\PSoC5/cyfitter_cfg.c **** *  This function is called by the start-up code for the selected device. It
 494:Generated_Source\PSoC5/cyfitter_cfg.c **** *  performs all of the necessary device configuration based on the design
 495:Generated_Source\PSoC5/cyfitter_cfg.c **** *  settings.  This includes settings from the Design Wide Resources (DWR) such
 496:Generated_Source\PSoC5/cyfitter_cfg.c **** *  as Clocks and Pins as well as any component configuration that is necessary.
 497:Generated_Source\PSoC5/cyfitter_cfg.c **** *
 498:Generated_Source\PSoC5/cyfitter_cfg.c **** * Parameters:
 499:Generated_Source\PSoC5/cyfitter_cfg.c **** *   void
 500:Generated_Source\PSoC5/cyfitter_cfg.c **** *
 501:Generated_Source\PSoC5/cyfitter_cfg.c **** * Return:
 502:Generated_Source\PSoC5/cyfitter_cfg.c **** *   void
 503:Generated_Source\PSoC5/cyfitter_cfg.c **** *
 504:Generated_Source\PSoC5/cyfitter_cfg.c **** *******************************************************************************/
 505:Generated_Source\PSoC5/cyfitter_cfg.c **** 
 506:Generated_Source\PSoC5/cyfitter_cfg.c **** void cyfitter_cfg(void)
 507:Generated_Source\PSoC5/cyfitter_cfg.c **** {
 633              		.loc 1 507 0
 634              		.cfi_startproc
 635              		@ args = 0, pretend = 0, frame = 0
 636              		@ frame_needed = 0, uses_anonymous_args = 0
 637 0000 38B5     		push	{r3, r4, r5, lr}
 638              		.cfi_def_cfa_offset 16
 639              		.cfi_offset 3, -16
 640              		.cfi_offset 4, -12
 641              		.cfi_offset 5, -8
 642              		.cfi_offset 14, -4
 508:Generated_Source\PSoC5/cyfitter_cfg.c **** #ifdef CYGlobalIntDisable
 509:Generated_Source\PSoC5/cyfitter_cfg.c **** 	/* Disable interrupts by default. Let user enable if/when they want. */
 510:Generated_Source\PSoC5/cyfitter_cfg.c **** 	CYGlobalIntDisable
ARM GAS  C:\Users\tkam627.UOA\AppData\Local\Temp\cco8XfIi.s 			page 22


 643              		.loc 1 510 0
 644              		.syntax unified
 645              	@ 510 "Generated_Source\PSoC5\cyfitter_cfg.c" 1
 646 0002 72B6     		CPSID   i
 647              	@ 0 "" 2
 511:Generated_Source\PSoC5/cyfitter_cfg.c **** #endif
 512:Generated_Source\PSoC5/cyfitter_cfg.c **** 
 513:Generated_Source\PSoC5/cyfitter_cfg.c **** 	/* Enable/Disable Debug functionality based on settings from System DWR */
 514:Generated_Source\PSoC5/cyfitter_cfg.c **** 	CY_SET_XTND_REG8((void CYFAR *)CYREG_MLOGIC_DEBUG, (CY_GET_XTND_REG8((void CYFAR *)CYREG_MLOGIC_DE
 648              		.loc 1 514 0
 649              		.thumb
 650              		.syntax unified
 651 0004 3C4A     		ldr	r2, .L57
 652 0006 1378     		ldrb	r3, [r2]	@ zero_extendqisi2
 653 0008 43F00403 		orr	r3, r3, #4
 654 000c 1370     		strb	r3, [r2]
 655              	.LVL50:
 656              	.LBB3:
 515:Generated_Source\PSoC5/cyfitter_cfg.c **** 
 516:Generated_Source\PSoC5/cyfitter_cfg.c **** 	{
 517:Generated_Source\PSoC5/cyfitter_cfg.c **** 
 518:Generated_Source\PSoC5/cyfitter_cfg.c **** 		CYPACKED typedef struct {
 519:Generated_Source\PSoC5/cyfitter_cfg.c **** 			void CYFAR *address;
 520:Generated_Source\PSoC5/cyfitter_cfg.c **** 			uint16 size;
 521:Generated_Source\PSoC5/cyfitter_cfg.c **** 		} CYPACKED_ATTR cfg_memset_t;
 522:Generated_Source\PSoC5/cyfitter_cfg.c **** 
 523:Generated_Source\PSoC5/cyfitter_cfg.c **** 
 524:Generated_Source\PSoC5/cyfitter_cfg.c **** 		CYPACKED typedef struct {
 525:Generated_Source\PSoC5/cyfitter_cfg.c **** 			void CYFAR *dest;
 526:Generated_Source\PSoC5/cyfitter_cfg.c **** 			const void CYFAR *src;
 527:Generated_Source\PSoC5/cyfitter_cfg.c **** 			uint16 size;
 528:Generated_Source\PSoC5/cyfitter_cfg.c **** 		} CYPACKED_ATTR cfg_memcpy_t;
 529:Generated_Source\PSoC5/cyfitter_cfg.c **** 
 530:Generated_Source\PSoC5/cyfitter_cfg.c **** 		static const cfg_memset_t CYCODE cfg_memset_list[] = {
 531:Generated_Source\PSoC5/cyfitter_cfg.c **** 			/* address, size */
 532:Generated_Source\PSoC5/cyfitter_cfg.c **** 			{(void CYFAR *)(CYREG_PRT4_DR), 48u},
 533:Generated_Source\PSoC5/cyfitter_cfg.c **** 			{(void CYFAR *)(CYDEV_UCFG_B0_P0_U0_BASE), 4096u},
 534:Generated_Source\PSoC5/cyfitter_cfg.c **** 			{(void CYFAR *)(CYDEV_UCFG_B1_P2_U0_BASE), 2048u},
 535:Generated_Source\PSoC5/cyfitter_cfg.c **** 			{(void CYFAR *)(CYDEV_UCFG_DSI0_BASE), 2560u},
 536:Generated_Source\PSoC5/cyfitter_cfg.c **** 			{(void CYFAR *)(CYDEV_UCFG_DSI12_BASE), 512u},
 537:Generated_Source\PSoC5/cyfitter_cfg.c **** 			{(void CYFAR *)(CYREG_BCTL0_MDCLK_EN), 32u},
 538:Generated_Source\PSoC5/cyfitter_cfg.c **** 		};
 539:Generated_Source\PSoC5/cyfitter_cfg.c **** 
 540:Generated_Source\PSoC5/cyfitter_cfg.c **** 		static const cfg_memcpy_t CYCODE cfg_memcpy_list [] = {
 541:Generated_Source\PSoC5/cyfitter_cfg.c **** 			/* dest, src, size */
 542:Generated_Source\PSoC5/cyfitter_cfg.c **** 			{(void CYFAR *)(CYDEV_PRTDSI_PRT12_BASE), BS_IOPORT_7_VAL, 6u},
 543:Generated_Source\PSoC5/cyfitter_cfg.c **** 		};
 544:Generated_Source\PSoC5/cyfitter_cfg.c **** 
 545:Generated_Source\PSoC5/cyfitter_cfg.c **** 		uint8 CYDATA i;
 546:Generated_Source\PSoC5/cyfitter_cfg.c **** 
 547:Generated_Source\PSoC5/cyfitter_cfg.c **** 		/* Zero out critical memory blocks before beginning configuration */
 548:Generated_Source\PSoC5/cyfitter_cfg.c **** 		for (i = 0u; i < (sizeof(cfg_memset_list)/sizeof(cfg_memset_list[0])); i++)
 657              		.loc 1 548 0
 658 000e 0024     		movs	r4, #0
 659 0010 0CE0     		b	.L52
 660              	.LVL51:
 661              	.L53:
ARM GAS  C:\Users\tkam627.UOA\AppData\Local\Temp\cco8XfIi.s 			page 23


 662              	.LBB4:
 549:Generated_Source\PSoC5/cyfitter_cfg.c **** 		{
 550:Generated_Source\PSoC5/cyfitter_cfg.c **** 			const cfg_memset_t CYCODE * CYDATA ms = &cfg_memset_list[i];
 551:Generated_Source\PSoC5/cyfitter_cfg.c **** 			CYMEMZERO(ms->address, (size_t)(uint32)(ms->size));
 663              		.loc 1 551 0 discriminator 3
 664 0012 3A48     		ldr	r0, .L57+4
 665 0014 6300     		lsls	r3, r4, #1
 666 0016 1A19     		adds	r2, r3, r4
 667 0018 5100     		lsls	r1, r2, #1
 668 001a 0144     		add	r1, r1, r0
 669 001c 0A46     		mov	r2, r1
 670 001e B1F84C10 		ldrh	r1, [r1, #76]
 671 0022 906C     		ldr	r0, [r2, #72]	@ unaligned
 672 0024 FFF7FEFF 		bl	CYMEMZERO
 673              	.LVL52:
 674              	.LBE4:
 548:Generated_Source\PSoC5/cyfitter_cfg.c **** 		{
 675              		.loc 1 548 0 discriminator 3
 676 0028 0134     		adds	r4, r4, #1
 677              	.LVL53:
 678 002a E4B2     		uxtb	r4, r4
 679              	.LVL54:
 680              	.L52:
 548:Generated_Source\PSoC5/cyfitter_cfg.c **** 		{
 681              		.loc 1 548 0 is_stmt 0 discriminator 1
 682 002c 052C     		cmp	r4, #5
 683 002e F0D9     		bls	.L53
 684 0030 0024     		movs	r4, #0
 685              	.LVL55:
 686 0032 0BE0     		b	.L54
 687              	.LVL56:
 688              	.L55:
 689              	.LBB5:
 552:Generated_Source\PSoC5/cyfitter_cfg.c **** 		}
 553:Generated_Source\PSoC5/cyfitter_cfg.c **** 
 554:Generated_Source\PSoC5/cyfitter_cfg.c **** 		/* Copy device configuration data into registers */
 555:Generated_Source\PSoC5/cyfitter_cfg.c **** 		for (i = 0u; i < (sizeof(cfg_memcpy_list)/sizeof(cfg_memcpy_list[0])); i++)
 556:Generated_Source\PSoC5/cyfitter_cfg.c **** 		{
 557:Generated_Source\PSoC5/cyfitter_cfg.c **** 			const cfg_memcpy_t CYCODE * CYDATA mc = &cfg_memcpy_list[i];
 558:Generated_Source\PSoC5/cyfitter_cfg.c **** 			void * CYDATA destPtr = mc->dest;
 690              		.loc 1 558 0 is_stmt 1 discriminator 3
 691 0034 3149     		ldr	r1, .L57+4
 692 0036 A300     		lsls	r3, r4, #2
 693 0038 1819     		adds	r0, r3, r4
 694 003a 4200     		lsls	r2, r0, #1
 695 003c 8818     		adds	r0, r1, r2
 696              	.LVL57:
 559:Generated_Source\PSoC5/cyfitter_cfg.c **** 			const void * CYDATA srcPtr = mc->src;
 560:Generated_Source\PSoC5/cyfitter_cfg.c **** 			uint16 CYDATA numBytes = mc->size;
 561:Generated_Source\PSoC5/cyfitter_cfg.c **** 			CYCONFIGCPY(destPtr, srcPtr, numBytes);
 697              		.loc 1 561 0 discriminator 3
 698 003e 0622     		movs	r2, #6
 699 0040 016F     		ldr	r1, [r0, #112]	@ unaligned
 700              	.LVL58:
 701 0042 C06E     		ldr	r0, [r0, #108]	@ unaligned
 702              	.LVL59:
 703 0044 FFF7FEFF 		bl	CYCONFIGCPY
ARM GAS  C:\Users\tkam627.UOA\AppData\Local\Temp\cco8XfIi.s 			page 24


 704              	.LVL60:
 705              	.LBE5:
 555:Generated_Source\PSoC5/cyfitter_cfg.c **** 		{
 706              		.loc 1 555 0 discriminator 3
 707 0048 0134     		adds	r4, r4, #1
 708              	.LVL61:
 709 004a E4B2     		uxtb	r4, r4
 710              	.LVL62:
 711              	.L54:
 555:Generated_Source\PSoC5/cyfitter_cfg.c **** 		{
 712              		.loc 1 555 0 is_stmt 0 discriminator 1
 713 004c 002C     		cmp	r4, #0
 714 004e F1D0     		beq	.L55
 562:Generated_Source\PSoC5/cyfitter_cfg.c **** 		}
 563:Generated_Source\PSoC5/cyfitter_cfg.c **** 
 564:Generated_Source\PSoC5/cyfitter_cfg.c **** 		cfg_write_bytes32(cy_cfg_addr_table, cy_cfg_data_table);
 715              		.loc 1 564 0 is_stmt 1
 716 0050 2B49     		ldr	r1, .L57+8
 717 0052 4FF09040 		mov	r0, #1207959552
 718 0056 FFF7FEFF 		bl	cfg_write_bytes32
 719              	.LVL63:
 565:Generated_Source\PSoC5/cyfitter_cfg.c **** 
 566:Generated_Source\PSoC5/cyfitter_cfg.c **** 		/* Perform normal device configuration. Order is not critical for these items. */
 567:Generated_Source\PSoC5/cyfitter_cfg.c **** 		CY_SET_XTND_REG8((void CYFAR *)(CYREG_DSM0_CR3), 0x0Au);
 720              		.loc 1 567 0
 721 005a 0A25     		movs	r5, #10
 722 005c 294B     		ldr	r3, .L57+12
 723 005e 1D70     		strb	r5, [r3]
 568:Generated_Source\PSoC5/cyfitter_cfg.c **** 
 569:Generated_Source\PSoC5/cyfitter_cfg.c **** 		/* Enable digital routing */
 570:Generated_Source\PSoC5/cyfitter_cfg.c **** 		CY_SET_XTND_REG8((void CYFAR *)CYREG_BCTL0_BANK_CTL, CY_GET_XTND_REG8((void CYFAR *)CYREG_BCTL0_B
 724              		.loc 1 570 0
 725 0060 294A     		ldr	r2, .L57+16
 726 0062 1378     		ldrb	r3, [r2]	@ zero_extendqisi2
 727 0064 43F00203 		orr	r3, r3, #2
 728 0068 1370     		strb	r3, [r2]
 571:Generated_Source\PSoC5/cyfitter_cfg.c **** 		CY_SET_XTND_REG8((void CYFAR *)CYREG_BCTL1_BANK_CTL, CY_GET_XTND_REG8((void CYFAR *)CYREG_BCTL1_B
 729              		.loc 1 571 0
 730 006a 1032     		adds	r2, r2, #16
 731 006c 1378     		ldrb	r3, [r2]	@ zero_extendqisi2
 732 006e 43F00203 		orr	r3, r3, #2
 733 0072 1370     		strb	r3, [r2]
 572:Generated_Source\PSoC5/cyfitter_cfg.c **** 
 573:Generated_Source\PSoC5/cyfitter_cfg.c **** 		/* Enable UDB array */
 574:Generated_Source\PSoC5/cyfitter_cfg.c **** 		CY_SET_XTND_REG8((void CYFAR *)CYREG_PM_ACT_CFG0, CY_GET_XTND_REG8((void CYFAR *)CYREG_PM_ACT_CFG
 734              		.loc 1 574 0
 735 0074 254C     		ldr	r4, .L57+20
 736              	.LVL64:
 737 0076 2378     		ldrb	r3, [r4]	@ zero_extendqisi2
 738 0078 43F04003 		orr	r3, r3, #64
 739 007c 2370     		strb	r3, [r4]
 575:Generated_Source\PSoC5/cyfitter_cfg.c **** 		CY_SET_XTND_REG8((void CYFAR *)CYREG_PM_AVAIL_CR2, CY_GET_XTND_REG8((void CYFAR *)CYREG_PM_AVAIL_
 740              		.loc 1 575 0
 741 007e A2F58632 		sub	r2, r2, #68608
 742 0082 513A     		subs	r2, r2, #81
 743 0084 1378     		ldrb	r3, [r2]	@ zero_extendqisi2
 744 0086 43F01003 		orr	r3, r3, #16
ARM GAS  C:\Users\tkam627.UOA\AppData\Local\Temp\cco8XfIi.s 			page 25


 745 008a 1370     		strb	r3, [r2]
 746              	.LBE3:
 576:Generated_Source\PSoC5/cyfitter_cfg.c **** 	}
 577:Generated_Source\PSoC5/cyfitter_cfg.c **** 
 578:Generated_Source\PSoC5/cyfitter_cfg.c **** 
 579:Generated_Source\PSoC5/cyfitter_cfg.c **** 	/* Perform second pass device configuration. These items must be configured in specific order afte
 580:Generated_Source\PSoC5/cyfitter_cfg.c **** 	CYCONFIGCPY((void CYFAR *)(CYREG_PRT0_DM0), (const void CYFAR *)(BS_IOPINS0_0_VAL), 8u);
 747              		.loc 1 580 0
 748 008c 0822     		movs	r2, #8
 749 008e 2049     		ldr	r1, .L57+24
 750 0090 2048     		ldr	r0, .L57+28
 751 0092 FFF7FEFF 		bl	CYCONFIGCPY
 752              	.LVL65:
 581:Generated_Source\PSoC5/cyfitter_cfg.c **** 	CYCONFIGCPY((void CYFAR *)(CYREG_PRT12_DR), (const void CYFAR *)(BS_IOPINS0_7_VAL), 10u);
 753              		.loc 1 581 0
 754 0096 2A46     		mov	r2, r5
 755 0098 1F49     		ldr	r1, .L57+32
 756 009a 2048     		ldr	r0, .L57+36
 757 009c FFF7FEFF 		bl	CYCONFIGCPY
 758              	.LVL66:
 582:Generated_Source\PSoC5/cyfitter_cfg.c **** 	CYCONFIGCPY((void CYFAR *)(CYREG_PRT15_DM0), (const void CYFAR *)(BS_IOPINS0_8_VAL), 8u);
 759              		.loc 1 582 0
 760 00a0 0822     		movs	r2, #8
 761 00a2 1F49     		ldr	r1, .L57+40
 762 00a4 1F48     		ldr	r0, .L57+44
 763 00a6 FFF7FEFF 		bl	CYCONFIGCPY
 764              	.LVL67:
 583:Generated_Source\PSoC5/cyfitter_cfg.c **** 	CYCONFIGCPY((void CYFAR *)(CYREG_PRT1_DM0), (const void CYFAR *)(BS_IOPINS0_1_VAL), 8u);
 765              		.loc 1 583 0
 766 00aa 0822     		movs	r2, #8
 767 00ac 1E49     		ldr	r1, .L57+48
 768 00ae 1F48     		ldr	r0, .L57+52
 769 00b0 FFF7FEFF 		bl	CYCONFIGCPY
 770              	.LVL68:
 584:Generated_Source\PSoC5/cyfitter_cfg.c **** 	CYCONFIGCPY((void CYFAR *)(CYREG_PRT2_DR), (const void CYFAR *)(BS_IOPINS0_2_VAL), 10u);
 771              		.loc 1 584 0
 772 00b4 2A46     		mov	r2, r5
 773 00b6 1E49     		ldr	r1, .L57+56
 774 00b8 1E48     		ldr	r0, .L57+60
 775 00ba FFF7FEFF 		bl	CYCONFIGCPY
 776              	.LVL69:
 585:Generated_Source\PSoC5/cyfitter_cfg.c **** 	CYCONFIGCPY((void CYFAR *)(CYREG_PRT3_DM0), (const void CYFAR *)(BS_IOPINS0_3_VAL), 8u);
 777              		.loc 1 585 0
 778 00be 0822     		movs	r2, #8
 779 00c0 1D49     		ldr	r1, .L57+64
 780 00c2 1E48     		ldr	r0, .L57+68
 781 00c4 FFF7FEFF 		bl	CYCONFIGCPY
 782              	.LVL70:
 586:Generated_Source\PSoC5/cyfitter_cfg.c **** 	/* Switch Boost to the precision bandgap reference from its internal reference */
 587:Generated_Source\PSoC5/cyfitter_cfg.c **** 	CY_SET_REG8((void CYXDATA *)CYREG_BOOST_CR2, (CY_GET_REG8((void CYXDATA *)CYREG_BOOST_CR2) | 0x08u
 783              		.loc 1 587 0
 784 00c8 1D4A     		ldr	r2, .L57+72
 785 00ca 1378     		ldrb	r3, [r2]	@ zero_extendqisi2
 786 00cc 43F00803 		orr	r3, r3, #8
 787 00d0 1370     		strb	r3, [r2]
 588:Generated_Source\PSoC5/cyfitter_cfg.c **** 
 589:Generated_Source\PSoC5/cyfitter_cfg.c **** 	/* Set Flash Cycles based on max possible frequency in case a glitch occurs during ClockSetup(). *
ARM GAS  C:\Users\tkam627.UOA\AppData\Local\Temp\cco8XfIi.s 			page 26


 590:Generated_Source\PSoC5/cyfitter_cfg.c **** 	CY_SET_XTND_REG8((void CYFAR *)(CYREG_CACHE_CC_CTL), (((CYDEV_INSTRUCT_CACHE_ENABLED) != 0) ? 0x61
 788              		.loc 1 590 0
 789 00d2 1C4D     		ldr	r5, .L57+76
 790 00d4 6123     		movs	r3, #97
 791 00d6 2B70     		strb	r3, [r5]
 591:Generated_Source\PSoC5/cyfitter_cfg.c **** 	/* Setup clocks based on selections from Clock DWR */
 592:Generated_Source\PSoC5/cyfitter_cfg.c **** 	ClockSetup();
 792              		.loc 1 592 0
 793 00d8 FFF7FEFF 		bl	ClockSetup
 794              	.LVL71:
 593:Generated_Source\PSoC5/cyfitter_cfg.c **** 	/* Set Flash Cycles based on newly configured 24.00MHz Bus Clock. */
 594:Generated_Source\PSoC5/cyfitter_cfg.c **** 	CY_SET_XTND_REG8((void CYFAR *)(CYREG_CACHE_CC_CTL), (((CYDEV_INSTRUCT_CACHE_ENABLED) != 0) ? 0x81
 795              		.loc 1 594 0
 796 00dc 8123     		movs	r3, #129
 797 00de 2B70     		strb	r3, [r5]
 595:Generated_Source\PSoC5/cyfitter_cfg.c **** 	CY_SET_XTND_REG8((void CYFAR *)(CYREG_PANTHER_WAITPIPE), 0x01u);
 798              		.loc 1 595 0
 799 00e0 0122     		movs	r2, #1
 800 00e2 194B     		ldr	r3, .L57+80
 801 00e4 1A70     		strb	r2, [r3]
 596:Generated_Source\PSoC5/cyfitter_cfg.c **** 
 597:Generated_Source\PSoC5/cyfitter_cfg.c **** 	/* Perform basic analog initialization to defaults */
 598:Generated_Source\PSoC5/cyfitter_cfg.c **** 	AnalogSetDefault();
 802              		.loc 1 598 0
 803 00e6 FFF7FEFF 		bl	AnalogSetDefault
 804              	.LVL72:
 599:Generated_Source\PSoC5/cyfitter_cfg.c **** 
 600:Generated_Source\PSoC5/cyfitter_cfg.c **** 	/* Configure alternate active mode */
 601:Generated_Source\PSoC5/cyfitter_cfg.c **** 	CYCONFIGCPY((void CYFAR *)CYDEV_PM_STBY_BASE, (const void CYFAR *)CYDEV_PM_ACT_BASE, 14u);
 805              		.loc 1 601 0
 806 00ea 0E22     		movs	r2, #14
 807 00ec 2146     		mov	r1, r4
 808 00ee 1748     		ldr	r0, .L57+84
 809 00f0 FFF7FEFF 		bl	CYCONFIGCPY
 810              	.LVL73:
 811 00f4 38BD     		pop	{r3, r4, r5, pc}
 812              	.L58:
 813 00f6 00BF     		.align	2
 814              	.L57:
 815 00f8 E8460040 		.word	1073759976
 816 00fc 00000000 		.word	.LANCHOR0
 817 0100 80000048 		.word	1207959680
 818 0104 83580040 		.word	1073764483
 819 0108 03500140 		.word	1073827843
 820 010c A0430040 		.word	1073759136
 821 0110 E4050048 		.word	1207961060
 822 0114 02510040 		.word	1073762562
 823 0118 EC050048 		.word	1207961068
 824 011c C0510040 		.word	1073762752
 825 0120 F8050048 		.word	1207961080
 826 0124 F2510040 		.word	1073762802
 827 0128 00060048 		.word	1207961088
 828 012c 12510040 		.word	1073762578
 829 0130 08060048 		.word	1207961096
 830 0134 20510040 		.word	1073762592
 831 0138 14060048 		.word	1207961108
 832 013c 32510040 		.word	1073762610
ARM GAS  C:\Users\tkam627.UOA\AppData\Local\Temp\cco8XfIi.s 			page 27


 833 0140 22430040 		.word	1073759010
 834 0144 00480040 		.word	1073760256
 835 0148 04000840 		.word	1074266116
 836 014c B0430040 		.word	1073759152
 837              		.cfi_endproc
 838              	.LFE12:
 839              		.size	cyfitter_cfg, .-cyfitter_cfg
 840              		.global	ADC_DelSig_1_AMux__maskTable
 841              		.global	ADC_DelSig_1_AMux__addrTable
 842              		.global	AMux__maskTable
 843              		.global	AMux__addrTable
 844              		.section	.rodata
 845              		.align	2
 846              		.set	.LANCHOR0,. + 0
 847              		.type	AMux__addrTable, %object
 848              		.size	AMux__addrTable, 48
 849              	AMux__addrTable:
 850 0000 2D510040 		.word	1073762605
 851 0004 005B0040 		.word	1073765120
 852 0008 2D510040 		.word	1073762605
 853 000c 005B0040 		.word	1073765120
 854 0010 1D510040 		.word	1073762589
 855 0014 005B0040 		.word	1073765120
 856 0018 0D510040 		.word	1073762573
 857 001c 24430040 		.word	1073759012
 858 0020 FD510040 		.word	1073762813
 859 0024 005B0040 		.word	1073765120
 860 0028 FD510040 		.word	1073762813
 861 002c 585B0040 		.word	1073765208
 862              		.type	AMux__maskTable, %object
 863              		.size	AMux__maskTable, 12
 864              	AMux__maskTable:
 865 0030 40       		.byte	64
 866 0031 04       		.byte	4
 867 0032 80       		.byte	-128
 868 0033 08       		.byte	8
 869 0034 10       		.byte	16
 870 0035 01       		.byte	1
 871 0036 10       		.byte	16
 872 0037 00       		.byte	0
 873 0038 20       		.byte	32
 874 0039 02       		.byte	2
 875 003a 01       		.byte	1
 876 003b 10       		.byte	16
 877              		.type	ADC_DelSig_1_AMux__addrTable, %object
 878              		.size	ADC_DelSig_1_AMux__addrTable, 8
 879              	ADC_DelSig_1_AMux__addrTable:
 880 003c 035B0040 		.word	1073765123
 881 0040 24430040 		.word	1073759012
 882              		.type	ADC_DelSig_1_AMux__maskTable, %object
 883              		.size	ADC_DelSig_1_AMux__maskTable, 2
 884              	ADC_DelSig_1_AMux__maskTable:
 885 0044 40       		.byte	64
 886 0045 00       		.byte	0
 887 0046 0000     		.space	2
 888              		.type	cfg_memset_list.5046, %object
 889              		.size	cfg_memset_list.5046, 36
ARM GAS  C:\Users\tkam627.UOA\AppData\Local\Temp\cco8XfIi.s 			page 28


 890              	cfg_memset_list.5046:
 891 0048 40510040 		.word	1073762624
 892 004c 3000     		.short	48
 893 004e 00000140 		.4byte	1073807360
 894 0052 0010     		.short	4096
 895 0054 00140140 		.word	1073812480
 896 0058 0008     		.short	2048
 897 005a 00400140 		.4byte	1073823744
 898 005e 000A     		.short	2560
 899 0060 004C0140 		.word	1073826816
 900 0064 0002     		.short	512
 901 0066 00500140 		.4byte	1073827840
 902 006a 2000     		.short	32
 903              		.type	cfg_memcpy_list.5047, %object
 904              		.size	cfg_memcpy_list.5047, 10
 905              	cfg_memcpy_list.5047:
 906 006c 60520040 		.word	1073762912
 907 0070 DC050048 		.word	1207961052
 908 0074 0600     		.short	6
 909              		.text
 910              	.Letext0:
 911              		.file 2 "c:\\program files (x86)\\cypress\\psoc creator\\4.2\\psoc creator\\import\\gnu\\arm\\5.4.
 912              		.file 3 "Generated_Source\\PSoC5\\cytypes.h"
 913              		.file 4 "Generated_Source\\PSoC5\\CyLib.h"