ARM GAS  C:\Users\tkam627\AppData\Local\Temp\ccz4fv8f.s 			page 1


   1              		.syntax unified
   2              		.cpu cortex-m3
   3              		.fpu softvfp
   4              		.eabi_attribute 20, 1
   5              		.eabi_attribute 21, 1
   6              		.eabi_attribute 23, 3
   7              		.eabi_attribute 24, 1
   8              		.eabi_attribute 25, 1
   9              		.eabi_attribute 26, 1
  10              		.eabi_attribute 30, 1
  11              		.eabi_attribute 34, 1
  12              		.eabi_attribute 18, 4
  13              		.thumb
  14              		.syntax unified
  15              		.file	"main.c"
  16              		.text
  17              	.Ltext0:
  18              		.cfi_sections	.debug_frame
  19              		.syntax unified
  20              		.global _printf_float
  21              		.thumb
  22              		.syntax unified
  23              		.section	.text.RxIsr,"ax",%progbits
  24              		.align	2
  25              		.global	RxIsr
  26              		.thumb
  27              		.thumb_func
  28              		.type	RxIsr, %function
  29              	RxIsr:
  30              	.LFB64:
  31              		.file 1 "main.c"
   1:main.c        **** /* ========================================
   2:main.c        ****  *
   3:main.c        ****  * Copyright YOUR COMPANY, THE YEAR
   4:main.c        ****  * All Rights Reserved
   5:main.c        ****  * UNPUBLISHED, LICENSED SOFTWARE.
   6:main.c        ****  *
   7:main.c        ****  * CONFIDENTIAL AND PROPRIETARY INFORMATION
   8:main.c        ****  * WHICH IS THE PROPERTY OF your company.
   9:main.c        ****  *
  10:main.c        ****  * ========================================
  11:main.c        **** */
  12:main.c        **** #if defined(__GNUC__)
  13:main.c        **** asm(".global _printf_float");
  14:main.c        **** #endif
  15:main.c        **** 
  16:main.c        **** #include "project.h"
  17:main.c        **** #include "common.h"
  18:main.c        **** #include <stdio.h>
  19:main.c        **** #include <stdlib.h>
  20:main.c        **** #include <stdbool.h>
  21:main.c        **** 
  22:main.c        **** #define CLEAR_STRING "\033[2J"
  23:main.c        **** #define MOVE_CURSOR "\033[0;0H"
  24:main.c        **** #define SAMPLE_NUM 10000
  25:main.c        **** #define MAX_ADC 57500
  26:main.c        **** #define MIN_ADC 7000
ARM GAS  C:\Users\tkam627\AppData\Local\Temp\ccz4fv8f.s 			page 2


  27:main.c        **** #define MAX_ADC_DIFF 50500
  28:main.c        **** #define ERROR_MULTIPLIER 1000
  29:main.c        **** #define MAX_SPEED 0
  30:main.c        **** #define MIN_SPEED 230
  31:main.c        **** #define N_PNTS 10
  32:main.c        **** 
  33:main.c        **** void set_speed(uint8_t M, uint8_t speed);
  34:main.c        **** void extend(uint8_t M);
  35:main.c        **** void retract(uint8_t M);
  36:main.c        **** void stop(uint8_t M);
  37:main.c        **** void make_points();
  38:main.c        **** int32_t PID(int32_t[3], int32_t*, int32_t[3], uint8_t);
  39:main.c        **** int32_t target[6] = {MAX_ADC / 2, MAX_ADC / 2, MAX_ADC / 2, MAX_ADC / 2, MAX_ADC / 2, MAX_ADC / 2};
  40:main.c        **** int32_t points[6][N_PNTS];
  41:main.c        **** 
  42:main.c        **** uint8 errorStatus = 0u;
  43:main.c        **** CY_ISR(RxIsr)
  44:main.c        **** {
  32              		.loc 1 44 0
  33              		.cfi_startproc
  34              		@ args = 0, pretend = 0, frame = 0
  35              		@ frame_needed = 0, uses_anonymous_args = 0
  36              		@ link register save eliminated.
  37              	.L4:
  45:main.c        ****     uint8 rxStatus;
  46:main.c        ****     uint8 rxData;
  47:main.c        ****     do
  48:main.c        ****     {
  49:main.c        ****         /* Read receiver status register */
  50:main.c        ****         rxStatus = UART_RXSTATUS_REG;
  38              		.loc 1 50 0
  39 0000 0A4B     		ldr	r3, .L5
  40 0002 1B78     		ldrb	r3, [r3]	@ zero_extendqisi2
  41 0004 DBB2     		uxtb	r3, r3
  42              	.LVL0:
  51:main.c        **** 
  52:main.c        ****         if ((rxStatus & (UART_RX_STS_BREAK | UART_RX_STS_PAR_ERROR |
  43              		.loc 1 52 0
  44 0006 13F01E0F 		tst	r3, #30
  45 000a 05D0     		beq	.L2
  53:main.c        ****                          UART_RX_STS_STOP_ERROR | UART_RX_STS_OVERRUN)) != 0u)
  54:main.c        ****         {
  55:main.c        ****             /* ERROR handling. */
  56:main.c        ****             errorStatus |= rxStatus & (UART_RX_STS_BREAK | UART_RX_STS_PAR_ERROR |
  46              		.loc 1 56 0
  47 000c 0848     		ldr	r0, .L5+4
  48 000e 03F01E02 		and	r2, r3, #30
  49 0012 0178     		ldrb	r1, [r0]	@ zero_extendqisi2
  50 0014 0A43     		orrs	r2, r2, r1
  51 0016 0270     		strb	r2, [r0]
  52              	.L2:
  53 0018 03F02003 		and	r3, r3, #32
  54              	.LVL1:
  57:main.c        ****                                        UART_RX_STS_STOP_ERROR | UART_RX_STS_OVERRUN);
  58:main.c        ****         }
  59:main.c        **** 
  60:main.c        ****         if ((rxStatus & UART_RX_STS_FIFO_NOTEMPTY) != 0u)
ARM GAS  C:\Users\tkam627\AppData\Local\Temp\ccz4fv8f.s 			page 3


  55              		.loc 1 60 0
  56 001c 03F0FF02 		and	r2, r3, #255
  57 0020 0BB1     		cbz	r3, .L3
  61:main.c        ****         {
  62:main.c        ****             /* Read data from the RX data register */
  63:main.c        ****             rxData = UART_RXDATA_REG;
  58              		.loc 1 63 0
  59 0022 044B     		ldr	r3, .L5+8
  60 0024 1B78     		ldrb	r3, [r3]	@ zero_extendqisi2
  61              	.LVL2:
  62              	.L3:
  64:main.c        ****             if (errorStatus == 0u)
  65:main.c        ****             {
  66:main.c        ****                 /*
  67:main.c        ****                 UART_TXDATA_REG = rxData;
  68:main.c        ****                 
  69:main.c        ****                 printf("11\r\n");
  70:main.c        ****                 */
  71:main.c        ****             }
  72:main.c        ****         }
  73:main.c        ****     } while ((rxStatus & UART_RX_STS_FIFO_NOTEMPTY) != 0u);
  63              		.loc 1 73 0
  64 0026 002A     		cmp	r2, #0
  65 0028 EAD1     		bne	.L4
  74:main.c        **** }
  66              		.loc 1 74 0
  67 002a 7047     		bx	lr
  68              	.L6:
  69              		.align	2
  70              	.L5:
  71 002c 67650040 		.word	1073767783
  72 0030 00000000 		.word	.LANCHOR0
  73 0034 4B650040 		.word	1073767755
  74              		.cfi_endproc
  75              	.LFE64:
  76              		.size	RxIsr, .-RxIsr
  77              		.section	.text.SWPin_Control,"ax",%progbits
  78              		.align	2
  79              		.global	SWPin_Control
  80              		.thumb
  81              		.thumb_func
  82              		.type	SWPin_Control, %function
  83              	SWPin_Control:
  84              	.LFB65:
  75:main.c        **** 
  76:main.c        **** bool button = false;
  77:main.c        **** CY_ISR(SWPin_Control)
  78:main.c        **** {
  85              		.loc 1 78 0
  86              		.cfi_startproc
  87              		@ args = 0, pretend = 0, frame = 0
  88              		@ frame_needed = 0, uses_anonymous_args = 0
  89 0000 08B5     		push	{r3, lr}
  90              		.cfi_def_cfa_offset 8
  91              		.cfi_offset 3, -8
  92              		.cfi_offset 14, -4
  79:main.c        ****     if (InputPin_Read() == 1u)
ARM GAS  C:\Users\tkam627\AppData\Local\Temp\ccz4fv8f.s 			page 4


  93              		.loc 1 79 0
  94 0002 FFF7FEFF 		bl	InputPin_Read
  95              	.LVL3:
  96 0006 0128     		cmp	r0, #1
  97 0008 25D1     		bne	.L8
  80:main.c        ****     {
  81:main.c        ****         if (button) {
  98              		.loc 1 81 0
  99 000a 144B     		ldr	r3, .L16
 100 000c 5B78     		ldrb	r3, [r3, #1]	@ zero_extendqisi2
 101 000e 83B1     		cbz	r3, .L9
  82:main.c        ****             LED_Write(1);   
 102              		.loc 1 82 0
 103 0010 FFF7FEFF 		bl	LED_Write
 104              	.LVL4:
 105              	.LBB2:
  83:main.c        ****             for (int i = 0; i<6; i++) {
 106              		.loc 1 83 0
 107 0014 0023     		movs	r3, #0
 108 0016 09E0     		b	.L10
 109              	.LVL5:
 110              	.L11:
  84:main.c        ****                 target[i] = MIN_ADC + (MAX_ADC - MIN_ADC)/6*i;   
 111              		.loc 1 84 0 discriminator 3
 112 0018 41F65831 		movw	r1, #7000
 113 001c 42F2E002 		movw	r2, #8416
 114 0020 02FB0312 		mla	r2, r2, r3, r1
 115 0024 0E49     		ldr	r1, .L16+4
 116 0026 41F82320 		str	r2, [r1, r3, lsl #2]
  83:main.c        ****             for (int i = 0; i<6; i++) {
 117              		.loc 1 83 0 discriminator 3
 118 002a 0133     		adds	r3, r3, #1
 119              	.LVL6:
 120              	.L10:
  83:main.c        ****             for (int i = 0; i<6; i++) {
 121              		.loc 1 83 0 is_stmt 0 discriminator 1
 122 002c 052B     		cmp	r3, #5
 123 002e F3DD     		ble	.L11
 124 0030 0CE0     		b	.L12
 125              	.LVL7:
 126              	.L9:
 127              	.LBE2:
  85:main.c        ****             }
  86:main.c        ****         } else {
  87:main.c        ****             LED_Write(0);   
 128              		.loc 1 87 0 is_stmt 1
 129 0032 0020     		movs	r0, #0
 130 0034 FFF7FEFF 		bl	LED_Write
 131              	.LVL8:
 132              	.LBB3:
  88:main.c        ****             for (int i = 0; i<6; i++) {
 133              		.loc 1 88 0
 134 0038 0023     		movs	r3, #0
 135 003a 05E0     		b	.L13
 136              	.LVL9:
 137              	.L14:
  89:main.c        ****                 target[i] = MAX_ADC;
ARM GAS  C:\Users\tkam627\AppData\Local\Temp\ccz4fv8f.s 			page 5


 138              		.loc 1 89 0 discriminator 3
 139 003c 4EF29C01 		movw	r1, #57500
 140 0040 074A     		ldr	r2, .L16+4
 141 0042 42F82310 		str	r1, [r2, r3, lsl #2]
  88:main.c        ****             for (int i = 0; i<6; i++) {
 142              		.loc 1 88 0 discriminator 3
 143 0046 0133     		adds	r3, r3, #1
 144              	.LVL10:
 145              	.L13:
  88:main.c        ****             for (int i = 0; i<6; i++) {
 146              		.loc 1 88 0 is_stmt 0 discriminator 1
 147 0048 052B     		cmp	r3, #5
 148 004a F7DD     		ble	.L14
 149              	.LVL11:
 150              	.L12:
 151              	.LBE3:
  90:main.c        ****             }
  91:main.c        ****         }
  92:main.c        ****         
  93:main.c        ****         button = !button;
 152              		.loc 1 93 0 is_stmt 1
 153 004c 034A     		ldr	r2, .L16
 154 004e 5378     		ldrb	r3, [r2, #1]	@ zero_extendqisi2
 155 0050 83F00103 		eor	r3, r3, #1
 156 0054 5370     		strb	r3, [r2, #1]
 157              	.L8:
  94:main.c        ****     }
  95:main.c        **** 
  96:main.c        ****     InputPin_ClearInterrupt();
 158              		.loc 1 96 0
 159 0056 FFF7FEFF 		bl	InputPin_ClearInterrupt
 160              	.LVL12:
 161 005a 08BD     		pop	{r3, pc}
 162              	.L17:
 163              		.align	2
 164              	.L16:
 165 005c 00000000 		.word	.LANCHOR0
 166 0060 00000000 		.word	.LANCHOR1
 167              		.cfi_endproc
 168              	.LFE65:
 169              		.size	SWPin_Control, .-SWPin_Control
 170              		.section	.text.set_speed,"ax",%progbits
 171              		.align	2
 172              		.global	set_speed
 173              		.thumb
 174              		.thumb_func
 175              		.type	set_speed, %function
 176              	set_speed:
 177              	.LFB67:
  97:main.c        **** }
  98:main.c        **** 
  99:main.c        **** int main(void)
 100:main.c        **** {
 101:main.c        ****     CyGlobalIntEnable; /* Enable global interrupts. */
 102:main.c        ****     /* Place your initialization/startup code here (e.g. MyInst_Start()) */
 103:main.c        ****     UART_Start(); /* Start communication component */
 104:main.c        ****     AMux_Start();
ARM GAS  C:\Users\tkam627\AppData\Local\Temp\ccz4fv8f.s 			page 6


 105:main.c        ****     ADC_DelSig_1_Start();
 106:main.c        ****     
 107:main.c        ****     isr_rx_StartEx(RxIsr);
 108:main.c        ****     InputInterrupt_StartEx(SWPin_Control);
 109:main.c        ****     
 110:main.c        ****     PWM1_Start();
 111:main.c        ****     PWM2_Start();
 112:main.c        ****     PWM3_Start();
 113:main.c        **** 
 114:main.c        ****     /*
 115:main.c        ****     extend(0);
 116:main.c        ****     retract(1);
 117:main.c        ****     extend(2);
 118:main.c        ****     retract(3);
 119:main.c        ****     extend(4);
 120:main.c        ****     retract(5);
 121:main.c        ****     while(1);
 122:main.c        ****     */
 123:main.c        ****     ADC_DelSig_1_StartConvert();
 124:main.c        ****     CyDelay(1000);
 125:main.c        ****     
 126:main.c        ****     // Initialise ADC register
 127:main.c        ****     for (int i = 0; i<6; i++)
 128:main.c        ****     {
 129:main.c        ****         AMux_Select(i);
 130:main.c        ****         CyDelay(2);
 131:main.c        ****         uint32_t temp = ADC_DelSig_1_GetResult32();
 132:main.c        ****     }
 133:main.c        ****     CyDelay(1000);
 134:main.c        ****     
 135:main.c        ****     make_points();
 136:main.c        ****     
 137:main.c        ****     int32_t output = 0;
 138:main.c        ****     
 139:main.c        ****     int32_t PID_output[6] ={0};
 140:main.c        ****     int32_t integral[6] = {0};
 141:main.c        ****     int32_t errors[6][3] = {0};
 142:main.c        ****     int32_t params[3] = {2, 500, 1};
 143:main.c        ****     
 144:main.c        ****     uint8_t counter = 0;
 145:main.c        ****     
 146:main.c        ****     printf("%s", CLEAR_STRING);
 147:main.c        ****     printf("%s", MOVE_CURSOR);
 148:main.c        ****     printf("\r");
 149:main.c        ****     
 150:main.c        ****     printf("Retracting...\r\n");
 151:main.c        ****     /*
 152:main.c        ****     for(int i = 0; i < 3; i++)
 153:main.c        ****     {
 154:main.c        ****         for (int j=0; j<6; j++)
 155:main.c        ****         {
 156:main.c        ****             AMux_FastSelect(j);
 157:main.c        ****             CyDelay(2);// Important! minimum 1ms required for amux to catchup
 158:main.c        ****             output = ADC_DelSig_1_GetResult32();
 159:main.c        ****             errors[j][i] = (int32_t) ((target[j] - output) * ERROR_MULTIPLIER / MAX_ADC_DIFF);
 160:main.c        ****             printf("%d %d \r\n", j, output);
 161:main.c        ****             PID_output[j] = PID(errors[j], integral[j], params, i);
ARM GAS  C:\Users\tkam627\AppData\Local\Temp\ccz4fv8f.s 			page 7


 162:main.c        ****         }
 163:main.c        ****     }
 164:main.c        ****     
 165:main.c        ****     
 166:main.c        ****     for(int i = 0; i < 3; i++)
 167:main.c        ****     {
 168:main.c        ****         for (int j = 0; j<6; j++)
 169:main.c        ****         {
 170:main.c        ****             printf("%d %d %d  %d\r\n", i, j, errors[j][i], 1);
 171:main.c        ****         }
 172:main.c        ****     }
 173:main.c        ****     */
 174:main.c        ****     int32_t next_target[6] = {0};
 175:main.c        **** 
 176:main.c        ****     for(;;)
 177:main.c        ****     {       
 178:main.c        ****         /* pid */ 
 179:main.c        ****         for (int i = 0; i<6; i++) {
 180:main.c        ****             AMux_Select(i);
 181:main.c        ****             CyDelay(2);
 182:main.c        ****             output = ADC_DelSig_1_GetResult32();
 183:main.c        ****             
 184:main.c        ****             // rio's code
 185:main.c        ****             //errors[i][counter] = ((target[i] - output) * ERROR_MULTIPLIER) / MAX_ADC_DIFF;
 186:main.c        ****             errors[i][counter] = ((points[i][next_target[i]] - output) * ERROR_MULTIPLIER) / MAX_AD
 187:main.c        **** 
 188:main.c        ****             PID_output[i] = PID(errors[i], &integral[i], params, counter);
 189:main.c        ****             
 190:main.c        ****             if (abs(PID_output[i]) > ERROR_MULTIPLIER) {
 191:main.c        ****                 set_speed(i, MAX_SPEED);
 192:main.c        ****             } else {
 193:main.c        ****                 set_speed(i, (uint8_t) (MAX_SPEED + ((MIN_SPEED - MAX_SPEED) * (ERROR_MULTIPLIER - 
 194:main.c        ****             }
 195:main.c        ****             
 196:main.c        ****             if ((errors[i][counter]) * 200 > ERROR_MULTIPLIER) {
 197:main.c        ****                 extend(i);
 198:main.c        ****             } else if ((errors[i][counter]) * 200 < -ERROR_MULTIPLIER) {
 199:main.c        ****                 retract(i);
 200:main.c        ****             } else {
 201:main.c        ****                 stop(i);
 202:main.c        ****                 
 203:main.c        ****                 next_target[i]++;
 204:main.c        ****             }
 205:main.c        ****             CyDelay(2);
 206:main.c        ****         }
 207:main.c        ****         
 208:main.c        ****         //printf("%d %d %d \r\n", errors[0][counter], PID_output[0], MIN_SPEED * (ERROR_MULTIPLIER 
 209:main.c        ****         counter = (counter + 1) % 3;
 210:main.c        ****     }
 211:main.c        **** }
 212:main.c        **** 
 213:main.c        **** void set_speed(uint8_t M, uint8_t speed) {
 178              		.loc 1 213 0
 179              		.cfi_startproc
 180              		@ args = 0, pretend = 0, frame = 0
 181              		@ frame_needed = 0, uses_anonymous_args = 0
 182              	.LVL13:
ARM GAS  C:\Users\tkam627\AppData\Local\Temp\ccz4fv8f.s 			page 8


 183 0000 08B5     		push	{r3, lr}
 184              		.cfi_def_cfa_offset 8
 185              		.cfi_offset 3, -8
 186              		.cfi_offset 14, -4
 214:main.c        ****     switch(M) {
 187              		.loc 1 214 0
 188 0002 0528     		cmp	r0, #5
 189 0004 1BD8     		bhi	.L18
 190 0006 DFE800F0 		tbb	[pc, r0]
 191              	.L21:
 192 000a 03       		.byte	(.L20-.L21)/2
 193 000b 07       		.byte	(.L22-.L21)/2
 194 000c 0B       		.byte	(.L23-.L21)/2
 195 000d 0F       		.byte	(.L24-.L21)/2
 196 000e 13       		.byte	(.L25-.L21)/2
 197 000f 17       		.byte	(.L26-.L21)/2
 198              		.p2align 1
 199              	.L20:
 215:main.c        ****        case 0:
 216:main.c        ****         PWM1_WriteCompare1(speed);
 200              		.loc 1 216 0
 201 0010 0846     		mov	r0, r1
 202              	.LVL14:
 203 0012 FFF7FEFF 		bl	PWM1_WriteCompare1
 204              	.LVL15:
 217:main.c        ****         break;
 205              		.loc 1 217 0
 206 0016 08BD     		pop	{r3, pc}
 207              	.LVL16:
 208              	.L22:
 218:main.c        ****        case 1:
 219:main.c        ****         PWM1_WriteCompare2(speed);
 209              		.loc 1 219 0
 210 0018 0846     		mov	r0, r1
 211              	.LVL17:
 212 001a FFF7FEFF 		bl	PWM1_WriteCompare2
 213              	.LVL18:
 220:main.c        ****         break;
 214              		.loc 1 220 0
 215 001e 08BD     		pop	{r3, pc}
 216              	.LVL19:
 217              	.L23:
 221:main.c        ****        case 2:
 222:main.c        ****         PWM2_WriteCompare1(speed);
 218              		.loc 1 222 0
 219 0020 0846     		mov	r0, r1
 220              	.LVL20:
 221 0022 FFF7FEFF 		bl	PWM2_WriteCompare1
 222              	.LVL21:
 223:main.c        ****         break;
 223              		.loc 1 223 0
 224 0026 08BD     		pop	{r3, pc}
 225              	.LVL22:
 226              	.L24:
 224:main.c        ****        case 3:
 225:main.c        ****         PWM2_WriteCompare2(speed);
 227              		.loc 1 225 0
ARM GAS  C:\Users\tkam627\AppData\Local\Temp\ccz4fv8f.s 			page 9


 228 0028 0846     		mov	r0, r1
 229              	.LVL23:
 230 002a FFF7FEFF 		bl	PWM2_WriteCompare2
 231              	.LVL24:
 226:main.c        ****         break;
 232              		.loc 1 226 0
 233 002e 08BD     		pop	{r3, pc}
 234              	.LVL25:
 235              	.L25:
 227:main.c        ****        case 4:
 228:main.c        ****         PWM3_WriteCompare1(speed);
 236              		.loc 1 228 0
 237 0030 0846     		mov	r0, r1
 238              	.LVL26:
 239 0032 FFF7FEFF 		bl	PWM3_WriteCompare1
 240              	.LVL27:
 229:main.c        ****         break;
 241              		.loc 1 229 0
 242 0036 08BD     		pop	{r3, pc}
 243              	.LVL28:
 244              	.L26:
 230:main.c        ****        case 5:
 231:main.c        ****         PWM3_WriteCompare2(speed);
 245              		.loc 1 231 0
 246 0038 0846     		mov	r0, r1
 247              	.LVL29:
 248 003a FFF7FEFF 		bl	PWM3_WriteCompare2
 249              	.LVL30:
 250              	.L18:
 251 003e 08BD     		pop	{r3, pc}
 252              		.cfi_endproc
 253              	.LFE67:
 254              		.size	set_speed, .-set_speed
 255              		.section	.text.extend,"ax",%progbits
 256              		.align	2
 257              		.global	extend
 258              		.thumb
 259              		.thumb_func
 260              		.type	extend, %function
 261              	extend:
 262              	.LFB68:
 232:main.c        ****         break;
 233:main.c        ****        default :
 234:main.c        ****         break;
 235:main.c        ****     }
 236:main.c        **** }
 237:main.c        **** 
 238:main.c        **** void extend(uint8_t M) {
 263              		.loc 1 238 0
 264              		.cfi_startproc
 265              		@ args = 0, pretend = 0, frame = 0
 266              		@ frame_needed = 0, uses_anonymous_args = 0
 267              	.LVL31:
 268 0000 08B5     		push	{r3, lr}
 269              		.cfi_def_cfa_offset 8
 270              		.cfi_offset 3, -8
 271              		.cfi_offset 14, -4
ARM GAS  C:\Users\tkam627\AppData\Local\Temp\ccz4fv8f.s 			page 10


 239:main.c        ****     switch(M) {
 272              		.loc 1 239 0
 273 0002 0528     		cmp	r0, #5
 274 0004 2DD8     		bhi	.L28
 275 0006 DFE800F0 		tbb	[pc, r0]
 276              	.L31:
 277 000a 03       		.byte	(.L30-.L31)/2
 278 000b 0A       		.byte	(.L32-.L31)/2
 279 000c 11       		.byte	(.L33-.L31)/2
 280 000d 18       		.byte	(.L34-.L31)/2
 281 000e 1F       		.byte	(.L35-.L31)/2
 282 000f 26       		.byte	(.L36-.L31)/2
 283              		.p2align 1
 284              	.L30:
 240:main.c        ****        case 0:
 241:main.c        ****         M1_IN1_Write(1U);
 285              		.loc 1 241 0
 286 0010 0120     		movs	r0, #1
 287              	.LVL32:
 288 0012 FFF7FEFF 		bl	M1_IN1_Write
 289              	.LVL33:
 242:main.c        ****         M1_IN2_Write(0U);
 290              		.loc 1 242 0
 291 0016 0020     		movs	r0, #0
 292 0018 FFF7FEFF 		bl	M1_IN2_Write
 293              	.LVL34:
 243:main.c        ****         break;
 294              		.loc 1 243 0
 295 001c 08BD     		pop	{r3, pc}
 296              	.LVL35:
 297              	.L32:
 244:main.c        ****        case 1:
 245:main.c        ****         M2_IN1_Write(1U);
 298              		.loc 1 245 0
 299 001e 0120     		movs	r0, #1
 300              	.LVL36:
 301 0020 FFF7FEFF 		bl	M2_IN1_Write
 302              	.LVL37:
 246:main.c        ****         M2_IN2_Write(0U);
 303              		.loc 1 246 0
 304 0024 0020     		movs	r0, #0
 305 0026 FFF7FEFF 		bl	M2_IN2_Write
 306              	.LVL38:
 247:main.c        ****         break;
 307              		.loc 1 247 0
 308 002a 08BD     		pop	{r3, pc}
 309              	.LVL39:
 310              	.L33:
 248:main.c        ****        case 2:
 249:main.c        ****         M3_IN1_Write(1U);
 311              		.loc 1 249 0
 312 002c 0120     		movs	r0, #1
 313              	.LVL40:
 314 002e FFF7FEFF 		bl	M3_IN1_Write
 315              	.LVL41:
 250:main.c        ****         M3_IN2_Write(0U);
 316              		.loc 1 250 0
ARM GAS  C:\Users\tkam627\AppData\Local\Temp\ccz4fv8f.s 			page 11


 317 0032 0020     		movs	r0, #0
 318 0034 FFF7FEFF 		bl	M3_IN2_Write
 319              	.LVL42:
 251:main.c        ****         break;
 320              		.loc 1 251 0
 321 0038 08BD     		pop	{r3, pc}
 322              	.LVL43:
 323              	.L34:
 252:main.c        ****        case 3:
 253:main.c        ****         M4_IN1_Write(1U);
 324              		.loc 1 253 0
 325 003a 0120     		movs	r0, #1
 326              	.LVL44:
 327 003c FFF7FEFF 		bl	M4_IN1_Write
 328              	.LVL45:
 254:main.c        ****         M4_IN2_Write(0U);
 329              		.loc 1 254 0
 330 0040 0020     		movs	r0, #0
 331 0042 FFF7FEFF 		bl	M4_IN2_Write
 332              	.LVL46:
 255:main.c        ****         break;
 333              		.loc 1 255 0
 334 0046 08BD     		pop	{r3, pc}
 335              	.LVL47:
 336              	.L35:
 256:main.c        ****        case 4:
 257:main.c        ****         M5_IN1_Write(1U);
 337              		.loc 1 257 0
 338 0048 0120     		movs	r0, #1
 339              	.LVL48:
 340 004a FFF7FEFF 		bl	M5_IN1_Write
 341              	.LVL49:
 258:main.c        ****         M5_IN2_Write(0U);
 342              		.loc 1 258 0
 343 004e 0020     		movs	r0, #0
 344 0050 FFF7FEFF 		bl	M5_IN2_Write
 345              	.LVL50:
 259:main.c        ****         break;
 346              		.loc 1 259 0
 347 0054 08BD     		pop	{r3, pc}
 348              	.LVL51:
 349              	.L36:
 260:main.c        ****        case 5:
 261:main.c        ****         M6_IN1_Write(1U);
 350              		.loc 1 261 0
 351 0056 0120     		movs	r0, #1
 352              	.LVL52:
 353 0058 FFF7FEFF 		bl	M6_IN1_Write
 354              	.LVL53:
 262:main.c        ****         M6_IN2_Write(0U);
 355              		.loc 1 262 0
 356 005c 0020     		movs	r0, #0
 357 005e FFF7FEFF 		bl	M6_IN2_Write
 358              	.LVL54:
 359              	.L28:
 360 0062 08BD     		pop	{r3, pc}
 361              		.cfi_endproc
ARM GAS  C:\Users\tkam627\AppData\Local\Temp\ccz4fv8f.s 			page 12


 362              	.LFE68:
 363              		.size	extend, .-extend
 364              		.section	.text.retract,"ax",%progbits
 365              		.align	2
 366              		.global	retract
 367              		.thumb
 368              		.thumb_func
 369              		.type	retract, %function
 370              	retract:
 371              	.LFB69:
 263:main.c        ****         break;
 264:main.c        ****        default :
 265:main.c        ****         break;
 266:main.c        ****     }
 267:main.c        **** }
 268:main.c        **** 
 269:main.c        **** void retract(uint8_t M) {
 372              		.loc 1 269 0
 373              		.cfi_startproc
 374              		@ args = 0, pretend = 0, frame = 0
 375              		@ frame_needed = 0, uses_anonymous_args = 0
 376              	.LVL55:
 377 0000 08B5     		push	{r3, lr}
 378              		.cfi_def_cfa_offset 8
 379              		.cfi_offset 3, -8
 380              		.cfi_offset 14, -4
 270:main.c        ****     switch(M) {
 381              		.loc 1 270 0
 382 0002 0528     		cmp	r0, #5
 383 0004 2DD8     		bhi	.L38
 384 0006 DFE800F0 		tbb	[pc, r0]
 385              	.L41:
 386 000a 03       		.byte	(.L40-.L41)/2
 387 000b 0A       		.byte	(.L42-.L41)/2
 388 000c 11       		.byte	(.L43-.L41)/2
 389 000d 18       		.byte	(.L44-.L41)/2
 390 000e 1F       		.byte	(.L45-.L41)/2
 391 000f 26       		.byte	(.L46-.L41)/2
 392              		.p2align 1
 393              	.L40:
 271:main.c        ****        case 0:
 272:main.c        ****         M1_IN1_Write(0U);
 394              		.loc 1 272 0
 395 0010 0020     		movs	r0, #0
 396              	.LVL56:
 397 0012 FFF7FEFF 		bl	M1_IN1_Write
 398              	.LVL57:
 273:main.c        ****         M1_IN2_Write(1U);
 399              		.loc 1 273 0
 400 0016 0120     		movs	r0, #1
 401 0018 FFF7FEFF 		bl	M1_IN2_Write
 402              	.LVL58:
 274:main.c        ****         break;
 403              		.loc 1 274 0
 404 001c 08BD     		pop	{r3, pc}
 405              	.LVL59:
 406              	.L42:
ARM GAS  C:\Users\tkam627\AppData\Local\Temp\ccz4fv8f.s 			page 13


 275:main.c        ****        case 1:
 276:main.c        ****         M2_IN1_Write(0U);
 407              		.loc 1 276 0
 408 001e 0020     		movs	r0, #0
 409              	.LVL60:
 410 0020 FFF7FEFF 		bl	M2_IN1_Write
 411              	.LVL61:
 277:main.c        ****         M2_IN2_Write(1U);
 412              		.loc 1 277 0
 413 0024 0120     		movs	r0, #1
 414 0026 FFF7FEFF 		bl	M2_IN2_Write
 415              	.LVL62:
 278:main.c        ****         break;
 416              		.loc 1 278 0
 417 002a 08BD     		pop	{r3, pc}
 418              	.LVL63:
 419              	.L43:
 279:main.c        ****        case 2:
 280:main.c        ****         M3_IN1_Write(0U);
 420              		.loc 1 280 0
 421 002c 0020     		movs	r0, #0
 422              	.LVL64:
 423 002e FFF7FEFF 		bl	M3_IN1_Write
 424              	.LVL65:
 281:main.c        ****         M3_IN2_Write(1U);
 425              		.loc 1 281 0
 426 0032 0120     		movs	r0, #1
 427 0034 FFF7FEFF 		bl	M3_IN2_Write
 428              	.LVL66:
 282:main.c        ****         break;
 429              		.loc 1 282 0
 430 0038 08BD     		pop	{r3, pc}
 431              	.LVL67:
 432              	.L44:
 283:main.c        ****        case 3:
 284:main.c        ****         M4_IN1_Write(0U);
 433              		.loc 1 284 0
 434 003a 0020     		movs	r0, #0
 435              	.LVL68:
 436 003c FFF7FEFF 		bl	M4_IN1_Write
 437              	.LVL69:
 285:main.c        ****         M4_IN2_Write(1U);
 438              		.loc 1 285 0
 439 0040 0120     		movs	r0, #1
 440 0042 FFF7FEFF 		bl	M4_IN2_Write
 441              	.LVL70:
 286:main.c        ****         break;
 442              		.loc 1 286 0
 443 0046 08BD     		pop	{r3, pc}
 444              	.LVL71:
 445              	.L45:
 287:main.c        ****        case 4:
 288:main.c        ****         M5_IN1_Write(0U);
 446              		.loc 1 288 0
 447 0048 0020     		movs	r0, #0
 448              	.LVL72:
 449 004a FFF7FEFF 		bl	M5_IN1_Write
ARM GAS  C:\Users\tkam627\AppData\Local\Temp\ccz4fv8f.s 			page 14


 450              	.LVL73:
 289:main.c        ****         M5_IN2_Write(1U);
 451              		.loc 1 289 0
 452 004e 0120     		movs	r0, #1
 453 0050 FFF7FEFF 		bl	M5_IN2_Write
 454              	.LVL74:
 290:main.c        ****         break;
 455              		.loc 1 290 0
 456 0054 08BD     		pop	{r3, pc}
 457              	.LVL75:
 458              	.L46:
 291:main.c        ****        case 5:
 292:main.c        ****         M6_IN1_Write(0U);
 459              		.loc 1 292 0
 460 0056 0020     		movs	r0, #0
 461              	.LVL76:
 462 0058 FFF7FEFF 		bl	M6_IN1_Write
 463              	.LVL77:
 293:main.c        ****         M6_IN2_Write(1U);
 464              		.loc 1 293 0
 465 005c 0120     		movs	r0, #1
 466 005e FFF7FEFF 		bl	M6_IN2_Write
 467              	.LVL78:
 468              	.L38:
 469 0062 08BD     		pop	{r3, pc}
 470              		.cfi_endproc
 471              	.LFE69:
 472              		.size	retract, .-retract
 473              		.section	.text.stop,"ax",%progbits
 474              		.align	2
 475              		.global	stop
 476              		.thumb
 477              		.thumb_func
 478              		.type	stop, %function
 479              	stop:
 480              	.LFB70:
 294:main.c        ****         break;
 295:main.c        ****        default :
 296:main.c        ****         break;
 297:main.c        ****     }
 298:main.c        **** }
 299:main.c        **** 
 300:main.c        **** void stop(uint8_t M) {
 481              		.loc 1 300 0
 482              		.cfi_startproc
 483              		@ args = 0, pretend = 0, frame = 0
 484              		@ frame_needed = 0, uses_anonymous_args = 0
 485              	.LVL79:
 486 0000 08B5     		push	{r3, lr}
 487              		.cfi_def_cfa_offset 8
 488              		.cfi_offset 3, -8
 489              		.cfi_offset 14, -4
 301:main.c        ****     switch(M) {
 490              		.loc 1 301 0
 491 0002 0528     		cmp	r0, #5
 492 0004 2DD8     		bhi	.L48
 493 0006 DFE800F0 		tbb	[pc, r0]
ARM GAS  C:\Users\tkam627\AppData\Local\Temp\ccz4fv8f.s 			page 15


 494              	.L51:
 495 000a 03       		.byte	(.L50-.L51)/2
 496 000b 0A       		.byte	(.L52-.L51)/2
 497 000c 11       		.byte	(.L53-.L51)/2
 498 000d 18       		.byte	(.L54-.L51)/2
 499 000e 1F       		.byte	(.L55-.L51)/2
 500 000f 26       		.byte	(.L56-.L51)/2
 501              		.p2align 1
 502              	.L50:
 302:main.c        ****        case 0:
 303:main.c        ****         M1_IN1_Write(0U);
 503              		.loc 1 303 0
 504 0010 0020     		movs	r0, #0
 505              	.LVL80:
 506 0012 FFF7FEFF 		bl	M1_IN1_Write
 507              	.LVL81:
 304:main.c        ****         M1_IN2_Write(0U);
 508              		.loc 1 304 0
 509 0016 0020     		movs	r0, #0
 510 0018 FFF7FEFF 		bl	M1_IN2_Write
 511              	.LVL82:
 305:main.c        ****         break;
 512              		.loc 1 305 0
 513 001c 08BD     		pop	{r3, pc}
 514              	.LVL83:
 515              	.L52:
 306:main.c        ****        case 1:
 307:main.c        ****         M2_IN1_Write(0U);
 516              		.loc 1 307 0
 517 001e 0020     		movs	r0, #0
 518              	.LVL84:
 519 0020 FFF7FEFF 		bl	M2_IN1_Write
 520              	.LVL85:
 308:main.c        ****         M2_IN2_Write(0U);
 521              		.loc 1 308 0
 522 0024 0020     		movs	r0, #0
 523 0026 FFF7FEFF 		bl	M2_IN2_Write
 524              	.LVL86:
 309:main.c        ****         break;
 525              		.loc 1 309 0
 526 002a 08BD     		pop	{r3, pc}
 527              	.LVL87:
 528              	.L53:
 310:main.c        ****        case 2:
 311:main.c        ****         M3_IN1_Write(0U);
 529              		.loc 1 311 0
 530 002c 0020     		movs	r0, #0
 531              	.LVL88:
 532 002e FFF7FEFF 		bl	M3_IN1_Write
 533              	.LVL89:
 312:main.c        ****         M3_IN2_Write(0U);
 534              		.loc 1 312 0
 535 0032 0020     		movs	r0, #0
 536 0034 FFF7FEFF 		bl	M3_IN2_Write
 537              	.LVL90:
 313:main.c        ****         break;
 538              		.loc 1 313 0
ARM GAS  C:\Users\tkam627\AppData\Local\Temp\ccz4fv8f.s 			page 16


 539 0038 08BD     		pop	{r3, pc}
 540              	.LVL91:
 541              	.L54:
 314:main.c        ****        case 3:
 315:main.c        ****         M4_IN1_Write(0U);
 542              		.loc 1 315 0
 543 003a 0020     		movs	r0, #0
 544              	.LVL92:
 545 003c FFF7FEFF 		bl	M4_IN1_Write
 546              	.LVL93:
 316:main.c        ****         M4_IN2_Write(0U);
 547              		.loc 1 316 0
 548 0040 0020     		movs	r0, #0
 549 0042 FFF7FEFF 		bl	M4_IN2_Write
 550              	.LVL94:
 317:main.c        ****         break;
 551              		.loc 1 317 0
 552 0046 08BD     		pop	{r3, pc}
 553              	.LVL95:
 554              	.L55:
 318:main.c        ****        case 4:
 319:main.c        ****         M5_IN1_Write(0U);
 555              		.loc 1 319 0
 556 0048 0020     		movs	r0, #0
 557              	.LVL96:
 558 004a FFF7FEFF 		bl	M5_IN1_Write
 559              	.LVL97:
 320:main.c        ****         M5_IN2_Write(0U);
 560              		.loc 1 320 0
 561 004e 0020     		movs	r0, #0
 562 0050 FFF7FEFF 		bl	M5_IN2_Write
 563              	.LVL98:
 321:main.c        ****         break;
 564              		.loc 1 321 0
 565 0054 08BD     		pop	{r3, pc}
 566              	.LVL99:
 567              	.L56:
 322:main.c        ****        case 5:
 323:main.c        ****         M6_IN1_Write(0U);
 568              		.loc 1 323 0
 569 0056 0020     		movs	r0, #0
 570              	.LVL100:
 571 0058 FFF7FEFF 		bl	M6_IN1_Write
 572              	.LVL101:
 324:main.c        ****         M6_IN2_Write(0U);
 573              		.loc 1 324 0
 574 005c 0020     		movs	r0, #0
 575 005e FFF7FEFF 		bl	M6_IN2_Write
 576              	.LVL102:
 577              	.L48:
 578 0062 08BD     		pop	{r3, pc}
 579              		.cfi_endproc
 580              	.LFE70:
 581              		.size	stop, .-stop
 582              		.section	.text.PID,"ax",%progbits
 583              		.align	2
 584              		.global	PID
ARM GAS  C:\Users\tkam627\AppData\Local\Temp\ccz4fv8f.s 			page 17


 585              		.thumb
 586              		.thumb_func
 587              		.type	PID, %function
 588              	PID:
 589              	.LFB71:
 325:main.c        ****         break;
 326:main.c        ****        default :
 327:main.c        ****         break;
 328:main.c        ****     }
 329:main.c        **** }
 330:main.c        **** 
 331:main.c        **** int32_t PID(int32_t errors[3], int32_t *integral, int32_t params[3], uint8_t counter) {
 590              		.loc 1 331 0
 591              		.cfi_startproc
 592              		@ args = 0, pretend = 0, frame = 0
 593              		@ frame_needed = 0, uses_anonymous_args = 0
 594              		@ link register save eliminated.
 595              	.LVL103:
 596 0000 30B4     		push	{r4, r5}
 597              		.cfi_def_cfa_offset 8
 598              		.cfi_offset 4, -8
 599              		.cfi_offset 5, -4
 332:main.c        ****     // P = errors[counter] * params[0]
 333:main.c        ****     // I = integral + errors[counter] * params[1]
 334:main.c        ****     // D = (errors[counter] - errors[(counter + 1) % 3]) / 2 * params[2]
 335:main.c        ****     *integral += errors[counter] / params[1];
 600              		.loc 1 335 0
 601 0002 50F82340 		ldr	r4, [r0, r3, lsl #2]
 602 0006 5568     		ldr	r5, [r2, #4]
 603 0008 94FBF5F4 		sdiv	r4, r4, r5
 604 000c 0D68     		ldr	r5, [r1]
 605 000e 2C44     		add	r4, r4, r5
 606 0010 0C60     		str	r4, [r1]
 336:main.c        ****     
 337:main.c        ****     return errors[counter] / params[0] + 0* (*integral) + 0*(errors[counter] - errors[(counter + 1)
 607              		.loc 1 337 0
 608 0012 50F82300 		ldr	r0, [r0, r3, lsl #2]
 609              	.LVL104:
 610 0016 1368     		ldr	r3, [r2]
 611              	.LVL105:
 338:main.c        **** }
 612              		.loc 1 338 0
 613 0018 90FBF3F0 		sdiv	r0, r0, r3
 614 001c 30BC     		pop	{r4, r5}
 615              		.cfi_restore 5
 616              		.cfi_restore 4
 617              		.cfi_def_cfa_offset 0
 618 001e 7047     		bx	lr
 619              		.cfi_endproc
 620              	.LFE71:
 621              		.size	PID, .-PID
 622              		.section	.text.make_points,"ax",%progbits
 623              		.align	2
 624              		.global	make_points
 625              		.thumb
 626              		.thumb_func
 627              		.type	make_points, %function
ARM GAS  C:\Users\tkam627\AppData\Local\Temp\ccz4fv8f.s 			page 18


 628              	make_points:
 629              	.LFB72:
 339:main.c        **** 
 340:main.c        **** void make_points() {
 630              		.loc 1 340 0
 631              		.cfi_startproc
 632              		@ args = 0, pretend = 0, frame = 0
 633              		@ frame_needed = 0, uses_anonymous_args = 0
 634 0000 70B5     		push	{r4, r5, r6, lr}
 635              		.cfi_def_cfa_offset 16
 636              		.cfi_offset 4, -16
 637              		.cfi_offset 5, -12
 638              		.cfi_offset 6, -8
 639              		.cfi_offset 14, -4
 640              	.LVL106:
 641              	.LBB4:
 341:main.c        ****     int32_t temp;
 342:main.c        ****     for (int i=0; i < 6; i++) {
 642              		.loc 1 342 0
 643 0002 0024     		movs	r4, #0
 644 0004 26E0     		b	.L61
 645              	.LVL107:
 646              	.L64:
 343:main.c        ****         AMux_Select(i);
 647              		.loc 1 343 0
 648 0006 E0B2     		uxtb	r0, r4
 649 0008 FFF7FEFF 		bl	AMux_Select
 650              	.LVL108:
 344:main.c        ****         CyDelay(2);
 651              		.loc 1 344 0
 652 000c 0220     		movs	r0, #2
 653 000e FFF7FEFF 		bl	CyDelay
 654              	.LVL109:
 345:main.c        ****         temp = ADC_DelSig_1_GetResult32();
 655              		.loc 1 345 0
 656 0012 FFF7FEFF 		bl	ADC_DelSig_1_GetResult32
 657              	.LVL110:
 658 0016 0546     		mov	r5, r0
 659              	.LVL111:
 660              	.LBB5:
 346:main.c        ****         for (int j=0; j < N_PNTS; j++) {
 661              		.loc 1 346 0
 662 0018 0022     		movs	r2, #0
 663 001a 18E0     		b	.L62
 664              	.LVL112:
 665              	.L63:
 347:main.c        ****             points[i][j] = temp + (target[i] - temp) / N_PNTS * (j+1);
 666              		.loc 1 347 0 discriminator 3
 667 001c 0F4B     		ldr	r3, .L66
 668 001e 53F82410 		ldr	r1, [r3, r4, lsl #2]
 669 0022 491B     		subs	r1, r1, r5
 670 0024 0E4B     		ldr	r3, .L66+4
 671 0026 83FB0103 		smull	r0, r3, r3, r1
 672 002a C917     		asrs	r1, r1, #31
 673 002c C1EBA303 		rsb	r3, r1, r3, asr #2
 674 0030 561C     		adds	r6, r2, #1
 675 0032 06FB0353 		mla	r3, r6, r3, r5
ARM GAS  C:\Users\tkam627\AppData\Local\Temp\ccz4fv8f.s 			page 19


 676 0036 04EB8400 		add	r0, r4, r4, lsl #2
 677 003a 4100     		lsls	r1, r0, #1
 678 003c 1144     		add	r1, r1, r2
 679 003e 0948     		ldr	r0, .L66+8
 680 0040 40F82130 		str	r3, [r0, r1, lsl #2]
 348:main.c        ****             printf("%d %d %d \r\n", i, j, points[i][j]);
 681              		.loc 1 348 0 discriminator 3
 682 0044 2146     		mov	r1, r4
 683 0046 0848     		ldr	r0, .L66+12
 684 0048 FFF7FEFF 		bl	printf
 685              	.LVL113:
 346:main.c        ****         for (int j=0; j < N_PNTS; j++) {
 686              		.loc 1 346 0 discriminator 3
 687 004c 3246     		mov	r2, r6
 688              	.LVL114:
 689              	.L62:
 346:main.c        ****         for (int j=0; j < N_PNTS; j++) {
 690              		.loc 1 346 0 is_stmt 0 discriminator 1
 691 004e 092A     		cmp	r2, #9
 692 0050 E4DD     		ble	.L63
 693              	.LBE5:
 342:main.c        ****         AMux_Select(i);
 694              		.loc 1 342 0 is_stmt 1 discriminator 2
 695 0052 0134     		adds	r4, r4, #1
 696              	.LVL115:
 697              	.L61:
 342:main.c        ****         AMux_Select(i);
 698              		.loc 1 342 0 is_stmt 0 discriminator 1
 699 0054 052C     		cmp	r4, #5
 700 0056 D6DD     		ble	.L64
 701              	.LBE4:
 349:main.c        ****         }
 350:main.c        ****     }
 351:main.c        **** }
 702              		.loc 1 351 0 is_stmt 1
 703 0058 70BD     		pop	{r4, r5, r6, pc}
 704              	.LVL116:
 705              	.L67:
 706 005a 00BF     		.align	2
 707              	.L66:
 708 005c 00000000 		.word	.LANCHOR1
 709 0060 67666666 		.word	1717986919
 710 0064 00000000 		.word	points
 711 0068 00000000 		.word	.LC1
 712              		.cfi_endproc
 713              	.LFE72:
 714              		.size	make_points, .-make_points
 715              		.section	.text.main,"ax",%progbits
 716              		.align	2
 717              		.global	main
 718              		.thumb
 719              		.thumb_func
 720              		.type	main, %function
 721              	main:
 722              	.LFB66:
 100:main.c        ****     CyGlobalIntEnable; /* Enable global interrupts. */
 723              		.loc 1 100 0
ARM GAS  C:\Users\tkam627\AppData\Local\Temp\ccz4fv8f.s 			page 20


 724              		.cfi_startproc
 725              		@ args = 0, pretend = 0, frame = 136
 726              		@ frame_needed = 0, uses_anonymous_args = 0
 727 0000 2DE9F041 		push	{r4, r5, r6, r7, r8, lr}
 728              		.cfi_def_cfa_offset 24
 729              		.cfi_offset 4, -24
 730              		.cfi_offset 5, -20
 731              		.cfi_offset 6, -16
 732              		.cfi_offset 7, -12
 733              		.cfi_offset 8, -8
 734              		.cfi_offset 14, -4
 735 0004 A2B0     		sub	sp, sp, #136
 736              		.cfi_def_cfa_offset 160
 101:main.c        ****     /* Place your initialization/startup code here (e.g. MyInst_Start()) */
 737              		.loc 1 101 0
 738              		.syntax unified
 739              	@ 101 "main.c" 1
 740 0006 62B6     		CPSIE   i
 741              	@ 0 "" 2
 103:main.c        ****     AMux_Start();
 742              		.loc 1 103 0
 743              		.thumb
 744              		.syntax unified
 745 0008 FFF7FEFF 		bl	UART_Start
 746              	.LVL117:
 104:main.c        ****     ADC_DelSig_1_Start();
 747              		.loc 1 104 0
 748 000c FFF7FEFF 		bl	AMux_Start
 749              	.LVL118:
 105:main.c        ****     
 750              		.loc 1 105 0
 751 0010 FFF7FEFF 		bl	ADC_DelSig_1_Start
 752              	.LVL119:
 107:main.c        ****     InputInterrupt_StartEx(SWPin_Control);
 753              		.loc 1 107 0
 754 0014 6748     		ldr	r0, .L80
 755 0016 FFF7FEFF 		bl	isr_rx_StartEx
 756              	.LVL120:
 108:main.c        ****     
 757              		.loc 1 108 0
 758 001a 6748     		ldr	r0, .L80+4
 759 001c FFF7FEFF 		bl	InputInterrupt_StartEx
 760              	.LVL121:
 110:main.c        ****     PWM2_Start();
 761              		.loc 1 110 0
 762 0020 FFF7FEFF 		bl	PWM1_Start
 763              	.LVL122:
 111:main.c        ****     PWM3_Start();
 764              		.loc 1 111 0
 765 0024 FFF7FEFF 		bl	PWM2_Start
 766              	.LVL123:
 112:main.c        **** 
 767              		.loc 1 112 0
 768 0028 FFF7FEFF 		bl	PWM3_Start
 769              	.LVL124:
 123:main.c        ****     CyDelay(1000);
 770              		.loc 1 123 0
ARM GAS  C:\Users\tkam627\AppData\Local\Temp\ccz4fv8f.s 			page 21


 771 002c FFF7FEFF 		bl	ADC_DelSig_1_StartConvert
 772              	.LVL125:
 124:main.c        ****     
 773              		.loc 1 124 0
 774 0030 4FF47A70 		mov	r0, #1000
 775 0034 FFF7FEFF 		bl	CyDelay
 776              	.LVL126:
 777              	.LBB6:
 127:main.c        ****     {
 778              		.loc 1 127 0
 779 0038 0024     		movs	r4, #0
 780 003a 08E0     		b	.L69
 781              	.LVL127:
 782              	.L70:
 783              	.LBB7:
 129:main.c        ****         CyDelay(2);
 784              		.loc 1 129 0 discriminator 3
 785 003c E0B2     		uxtb	r0, r4
 786 003e FFF7FEFF 		bl	AMux_Select
 787              	.LVL128:
 130:main.c        ****         uint32_t temp = ADC_DelSig_1_GetResult32();
 788              		.loc 1 130 0 discriminator 3
 789 0042 0220     		movs	r0, #2
 790 0044 FFF7FEFF 		bl	CyDelay
 791              	.LVL129:
 131:main.c        ****     }
 792              		.loc 1 131 0 discriminator 3
 793 0048 FFF7FEFF 		bl	ADC_DelSig_1_GetResult32
 794              	.LVL130:
 795              	.LBE7:
 127:main.c        ****     {
 796              		.loc 1 127 0 discriminator 3
 797 004c 0134     		adds	r4, r4, #1
 798              	.LVL131:
 799              	.L69:
 127:main.c        ****     {
 800              		.loc 1 127 0 is_stmt 0 discriminator 1
 801 004e 052C     		cmp	r4, #5
 802 0050 F4DD     		ble	.L70
 803              	.LBE6:
 133:main.c        ****     
 804              		.loc 1 133 0 is_stmt 1
 805 0052 4FF47A70 		mov	r0, #1000
 806 0056 FFF7FEFF 		bl	CyDelay
 807              	.LVL132:
 135:main.c        ****     
 808              		.loc 1 135 0
 809 005a FFF7FEFF 		bl	make_points
 810              	.LVL133:
 140:main.c        ****     int32_t errors[6][3] = {0};
 811              		.loc 1 140 0
 812 005e 0026     		movs	r6, #0
 813 0060 1C96     		str	r6, [sp, #112]
 814 0062 1D96     		str	r6, [sp, #116]
 815 0064 1E96     		str	r6, [sp, #120]
 816 0066 1F96     		str	r6, [sp, #124]
 817 0068 2096     		str	r6, [sp, #128]
ARM GAS  C:\Users\tkam627\AppData\Local\Temp\ccz4fv8f.s 			page 22


 818 006a 2196     		str	r6, [sp, #132]
 141:main.c        ****     int32_t params[3] = {2, 500, 1};
 819              		.loc 1 141 0
 820 006c 4822     		movs	r2, #72
 821 006e 3146     		mov	r1, r6
 822 0070 0AA8     		add	r0, sp, #40
 823 0072 FFF7FEFF 		bl	memset
 824              	.LVL134:
 142:main.c        ****     
 825              		.loc 1 142 0
 826 0076 514A     		ldr	r2, .L80+8
 827 0078 07AB     		add	r3, sp, #28
 828 007a 07CA     		ldmia	r2, {r0, r1, r2}
 829 007c 83E80700 		stmia	r3, {r0, r1, r2}
 830              	.LVL135:
 146:main.c        ****     printf("%s", MOVE_CURSOR);
 831              		.loc 1 146 0
 832 0080 4F4C     		ldr	r4, .L80+12
 833              	.LVL136:
 834 0082 5049     		ldr	r1, .L80+16
 835 0084 2046     		mov	r0, r4
 836 0086 FFF7FEFF 		bl	printf
 837              	.LVL137:
 147:main.c        ****     printf("\r");
 838              		.loc 1 147 0
 839 008a 4F49     		ldr	r1, .L80+20
 840 008c 2046     		mov	r0, r4
 841 008e FFF7FEFF 		bl	printf
 842              	.LVL138:
 148:main.c        ****     
 843              		.loc 1 148 0
 844 0092 0D20     		movs	r0, #13
 845 0094 FFF7FEFF 		bl	putchar
 846              	.LVL139:
 150:main.c        ****     /*
 847              		.loc 1 150 0
 848 0098 4C48     		ldr	r0, .L80+24
 849 009a FFF7FEFF 		bl	puts
 850              	.LVL140:
 174:main.c        **** 
 851              		.loc 1 174 0
 852 009e 0196     		str	r6, [sp, #4]
 853 00a0 0296     		str	r6, [sp, #8]
 854 00a2 0396     		str	r6, [sp, #12]
 855 00a4 0496     		str	r6, [sp, #16]
 856 00a6 0596     		str	r6, [sp, #20]
 857 00a8 0696     		str	r6, [sp, #24]
 858              	.LVL141:
 859              	.L78:
 860              	.LBB8:
 179:main.c        ****             AMux_Select(i);
 861              		.loc 1 179 0
 862 00aa 0024     		movs	r4, #0
 863 00ac 74E0     		b	.L71
 864              	.LVL142:
 865              	.L77:
 180:main.c        ****             CyDelay(2);
ARM GAS  C:\Users\tkam627\AppData\Local\Temp\ccz4fv8f.s 			page 23


 866              		.loc 1 180 0
 867 00ae E7B2     		uxtb	r7, r4
 868 00b0 3846     		mov	r0, r7
 869 00b2 FFF7FEFF 		bl	AMux_Select
 870              	.LVL143:
 181:main.c        ****             output = ADC_DelSig_1_GetResult32();
 871              		.loc 1 181 0
 872 00b6 0220     		movs	r0, #2
 873 00b8 FFF7FEFF 		bl	CyDelay
 874              	.LVL144:
 182:main.c        ****             
 875              		.loc 1 182 0
 876 00bc FFF7FEFF 		bl	ADC_DelSig_1_GetResult32
 877              	.LVL145:
 186:main.c        **** 
 878              		.loc 1 186 0
 879 00c0 3546     		mov	r5, r6
 880 00c2 A100     		lsls	r1, r4, #2
 881 00c4 22AB     		add	r3, sp, #136
 882 00c6 0B44     		add	r3, r3, r1
 883 00c8 53F8848C 		ldr	r8, [r3, #-132]
 884 00cc 0A19     		adds	r2, r1, r4
 885 00ce 5300     		lsls	r3, r2, #1
 886 00d0 4344     		add	r3, r3, r8
 887 00d2 3F4A     		ldr	r2, .L80+28
 888 00d4 52F82330 		ldr	r3, [r2, r3, lsl #2]
 889 00d8 181A     		subs	r0, r3, r0
 890              	.LVL146:
 891 00da 4FF47A73 		mov	r3, #1000
 892 00de 03FB00F0 		mul	r0, r3, r0
 893 00e2 3C4B     		ldr	r3, .L80+32
 894 00e4 83FB0023 		smull	r2, r3, r3, r0
 895 00e8 C017     		asrs	r0, r0, #31
 896 00ea C0EBA333 		rsb	r3, r0, r3, asr #14
 897 00ee 04EB4400 		add	r0, r4, r4, lsl #1
 898 00f2 8219     		adds	r2, r0, r6
 899 00f4 0DF1880E 		add	lr, sp, #136
 900 00f8 0EEB8202 		add	r2, lr, r2, lsl #2
 901 00fc 42F8603C 		str	r3, [r2, #-96]
 188:main.c        ****             
 902              		.loc 1 188 0
 903 0100 3346     		mov	r3, r6
 904 0102 07AA     		add	r2, sp, #28
 905 0104 0DF1700E 		add	lr, sp, #112
 906 0108 7144     		add	r1, r1, lr
 907 010a 0DF1280E 		add	lr, sp, #40
 908 010e 0EEB8000 		add	r0, lr, r0, lsl #2
 909 0112 FFF7FEFF 		bl	PID
 910              	.LVL147:
 190:main.c        ****                 set_speed(i, MAX_SPEED);
 911              		.loc 1 190 0
 912 0116 0028     		cmp	r0, #0
 913 0118 B8BF     		it	lt
 914 011a 4042     		rsblt	r0, r0, #0
 915 011c B0F57A7F 		cmp	r0, #1000
 916 0120 04DD     		ble	.L72
 191:main.c        ****             } else {
ARM GAS  C:\Users\tkam627\AppData\Local\Temp\ccz4fv8f.s 			page 24


 917              		.loc 1 191 0
 918 0122 0021     		movs	r1, #0
 919 0124 3846     		mov	r0, r7
 920 0126 FFF7FEFF 		bl	set_speed
 921              	.LVL148:
 922 012a 0EE0     		b	.L73
 923              	.L72:
 193:main.c        ****             }
 924              		.loc 1 193 0
 925 012c C0F57A70 		rsb	r0, r0, #1000
 926 0130 E623     		movs	r3, #230
 927 0132 03FB00F0 		mul	r0, r3, r0
 928 0136 2849     		ldr	r1, .L80+36
 929 0138 81FB0031 		smull	r3, r1, r1, r0
 930 013c C017     		asrs	r0, r0, #31
 931 013e C0EBA111 		rsb	r1, r0, r1, asr #6
 932 0142 C9B2     		uxtb	r1, r1
 933 0144 3846     		mov	r0, r7
 934 0146 FFF7FEFF 		bl	set_speed
 935              	.LVL149:
 936              	.L73:
 196:main.c        ****                 extend(i);
 937              		.loc 1 196 0
 938 014a 04EB4403 		add	r3, r4, r4, lsl #1
 939 014e 1D44     		add	r5, r5, r3
 940 0150 22AB     		add	r3, sp, #136
 941 0152 03EB8505 		add	r5, r3, r5, lsl #2
 942 0156 55F8602C 		ldr	r2, [r5, #-96]
 943 015a C823     		movs	r3, #200
 944 015c 03FB02F3 		mul	r3, r3, r2
 945 0160 B3F57A7F 		cmp	r3, #1000
 946 0164 03DD     		ble	.L74
 197:main.c        ****             } else if ((errors[i][counter]) * 200 < -ERROR_MULTIPLIER) {
 947              		.loc 1 197 0
 948 0166 3846     		mov	r0, r7
 949 0168 FFF7FEFF 		bl	extend
 950              	.LVL150:
 951 016c 10E0     		b	.L75
 952              	.L74:
 198:main.c        ****                 retract(i);
 953              		.loc 1 198 0
 954 016e 13F57A7F 		cmn	r3, #1000
 955 0172 03DA     		bge	.L76
 199:main.c        ****             } else {
 956              		.loc 1 199 0
 957 0174 3846     		mov	r0, r7
 958 0176 FFF7FEFF 		bl	retract
 959              	.LVL151:
 960 017a 09E0     		b	.L75
 961              	.L76:
 201:main.c        ****                 
 962              		.loc 1 201 0
 963 017c 3846     		mov	r0, r7
 964 017e FFF7FEFF 		bl	stop
 965              	.LVL152:
 203:main.c        ****             }
 966              		.loc 1 203 0
ARM GAS  C:\Users\tkam627\AppData\Local\Temp\ccz4fv8f.s 			page 25


 967 0182 22AB     		add	r3, sp, #136
 968 0184 03EB8402 		add	r2, r3, r4, lsl #2
 969 0188 08F10103 		add	r3, r8, #1
 970 018c 42F8843C 		str	r3, [r2, #-132]
 971              	.L75:
 205:main.c        ****         }
 972              		.loc 1 205 0 discriminator 2
 973 0190 0220     		movs	r0, #2
 974 0192 FFF7FEFF 		bl	CyDelay
 975              	.LVL153:
 179:main.c        ****             AMux_Select(i);
 976              		.loc 1 179 0 discriminator 2
 977 0196 0134     		adds	r4, r4, #1
 978              	.LVL154:
 979              	.L71:
 179:main.c        ****             AMux_Select(i);
 980              		.loc 1 179 0 is_stmt 0 discriminator 1
 981 0198 052C     		cmp	r4, #5
 982 019a 88DD     		ble	.L77
 983              	.LBE8:
 209:main.c        ****     }
 984              		.loc 1 209 0 is_stmt 1
 985 019c 731C     		adds	r3, r6, #1
 986 019e 0F4E     		ldr	r6, .L80+40
 987              	.LVL155:
 988 01a0 86FB0326 		smull	r2, r6, r6, r3
 989 01a4 A6EBE376 		sub	r6, r6, r3, asr #31
 990 01a8 06EB4606 		add	r6, r6, r6, lsl #1
 991 01ac 9E1B     		subs	r6, r3, r6
 992 01ae F6B2     		uxtb	r6, r6
 993              	.LVL156:
 210:main.c        **** }
 994              		.loc 1 210 0
 995 01b0 7BE7     		b	.L78
 996              	.L81:
 997 01b2 00BF     		.align	2
 998              	.L80:
 999 01b4 00000000 		.word	RxIsr
 1000 01b8 00000000 		.word	SWPin_Control
 1001 01bc 00000000 		.word	.LANCHOR2
 1002 01c0 14000000 		.word	.LC3
 1003 01c4 0C000000 		.word	.LC2
 1004 01c8 18000000 		.word	.LC4
 1005 01cc 20000000 		.word	.LC5
 1006 01d0 00000000 		.word	points
 1007 01d4 DF360E53 		.word	1393440479
 1008 01d8 D34D6210 		.word	274877907
 1009 01dc 56555555 		.word	1431655766
 1010              		.cfi_endproc
 1011              	.LFE66:
 1012              		.size	main, .-main
 1013              		.global	button
 1014              		.global	errorStatus
 1015              		.comm	points,240,4
 1016              		.global	target
 1017              		.section	.rodata
 1018              		.align	2
ARM GAS  C:\Users\tkam627\AppData\Local\Temp\ccz4fv8f.s 			page 26


 1019              		.set	.LANCHOR2,. + 0
 1020              	.LC0:
 1021 0000 02000000 		.word	2
 1022 0004 F4010000 		.word	500
 1023 0008 01000000 		.word	1
 1024              		.data
 1025              		.align	2
 1026              		.set	.LANCHOR1,. + 0
 1027              		.type	target, %object
 1028              		.size	target, 24
 1029              	target:
 1030 0000 4E700000 		.word	28750
 1031 0004 4E700000 		.word	28750
 1032 0008 4E700000 		.word	28750
 1033 000c 4E700000 		.word	28750
 1034 0010 4E700000 		.word	28750
 1035 0014 4E700000 		.word	28750
 1036              		.section	.rodata.str1.4,"aMS",%progbits,1
 1037              		.align	2
 1038              	.LC1:
 1039 0000 25642025 		.ascii	"%d %d %d \015\012\000"
 1039      64202564 
 1039      200D0A00 
 1040              	.LC2:
 1041 000c 1B5B324A 		.ascii	"\033[2J\000"
 1041      00
 1042 0011 000000   		.space	3
 1043              	.LC3:
 1044 0014 257300   		.ascii	"%s\000"
 1045 0017 00       		.space	1
 1046              	.LC4:
 1047 0018 1B5B303B 		.ascii	"\033[0;0H\000"
 1047      304800
 1048 001f 00       		.space	1
 1049              	.LC5:
 1050 0020 52657472 		.ascii	"Retracting...\015\000"
 1050      61637469 
 1050      6E672E2E 
 1050      2E0D00
 1051              		.bss
 1052              		.set	.LANCHOR0,. + 0
 1053              		.type	errorStatus, %object
 1054              		.size	errorStatus, 1
 1055              	errorStatus:
 1056 0000 00       		.space	1
 1057              		.type	button, %object
 1058              		.size	button, 1
 1059              	button:
 1060 0001 00       		.space	1
 1061              		.text
 1062              	.Letext0:
 1063              		.file 2 "c:\\program files (x86)\\cypress\\psoc creator\\4.2\\psoc creator\\import\\gnu\\arm\\5.4.
 1064              		.file 3 "c:\\program files (x86)\\cypress\\psoc creator\\4.2\\psoc creator\\import\\gnu\\arm\\5.4.
 1065              		.file 4 "Generated_Source\\PSoC5/cytypes.h"
 1066              		.file 5 "Generated_Source\\PSoC5/core_cm3.h"
 1067              		.file 6 "Generated_Source\\PSoC5/InputPin.h"
 1068              		.file 7 "Generated_Source\\PSoC5/LED.h"
ARM GAS  C:\Users\tkam627\AppData\Local\Temp\ccz4fv8f.s 			page 27


 1069              		.file 8 "Generated_Source\\PSoC5/PWM1.h"
 1070              		.file 9 "Generated_Source\\PSoC5/PWM2.h"
 1071              		.file 10 "Generated_Source\\PSoC5/PWM3.h"
 1072              		.file 11 "Generated_Source\\PSoC5/M1_IN1.h"
 1073              		.file 12 "Generated_Source\\PSoC5/M1_IN2.h"
 1074              		.file 13 "Generated_Source\\PSoC5/M2_IN1.h"
 1075              		.file 14 "Generated_Source\\PSoC5/M2_IN2.h"
 1076              		.file 15 "Generated_Source\\PSoC5/M3_IN1.h"
 1077              		.file 16 "Generated_Source\\PSoC5/M3_IN2.h"
 1078              		.file 17 "Generated_Source\\PSoC5/M4_IN1.h"
 1079              		.file 18 "Generated_Source\\PSoC5/M4_IN2.h"
 1080              		.file 19 "Generated_Source\\PSoC5/M5_IN1.h"
 1081              		.file 20 "Generated_Source\\PSoC5/M5_IN2.h"
 1082              		.file 21 "Generated_Source\\PSoC5/M6_IN1.h"
 1083              		.file 22 "Generated_Source\\PSoC5/M6_IN2.h"
 1084              		.file 23 "c:\\program files (x86)\\cypress\\psoc creator\\4.2\\psoc creator\\import\\gnu\\arm\\5.4
 1085              		.file 24 "Generated_Source\\PSoC5/AMux.h"
 1086              		.file 25 "Generated_Source\\PSoC5/CyLib.h"
 1087              		.file 26 "Generated_Source\\PSoC5/ADC_DelSig_1.h"
 1088              		.file 27 "Generated_Source\\PSoC5/UART.h"
 1089              		.file 28 "Generated_Source\\PSoC5/isr_rx.h"
 1090              		.file 29 "Generated_Source\\PSoC5/InputInterrupt.h"
 1091              		.file 30 "<built-in>"