ARM GAS  C:\Users\tkam627\AppData\Local\Temp\ccEYBGNj.s 			page 1


   1              		.syntax unified
   2              		.cpu cortex-m3
   3              		.fpu softvfp
   4              		.eabi_attribute 20, 1
   5              		.eabi_attribute 21, 1
   6              		.eabi_attribute 23, 3
   7              		.eabi_attribute 24, 1
   8              		.eabi_attribute 25, 1
   9              		.eabi_attribute 26, 1
  10              		.eabi_attribute 30, 1
  11              		.eabi_attribute 34, 1
  12              		.eabi_attribute 18, 4
  13              		.thumb
  14              		.syntax unified
  15              		.file	"PID.c"
  16              		.text
  17              	.Ltext0:
  18              		.cfi_sections	.debug_frame
  19              		.section	.text.pid_need_compute,"ax",%progbits
  20              		.align	2
  21              		.global	pid_need_compute
  22              		.thumb
  23              		.thumb_func
  24              		.type	pid_need_compute, %function
  25              	pid_need_compute:
  26              	.LFB1:
  27              		.file 1 "PID.c"
   1:PID.c         **** /*	Floating point PID control loop for Microcontrollers
   2:PID.c         **** 	Copyright (C) 2015 Jesus Ruben Santa Anna Zamudio.
   3:PID.c         **** 
   4:PID.c         **** 	This program is free software: you can redistribute it and/or modify
   5:PID.c         **** 	it under the terms of the GNU General Public License as published by
   6:PID.c         **** 	the Free Software Foundation, either version 3 of the License, or
   7:PID.c         **** 	(at your option) any later version.
   8:PID.c         **** 
   9:PID.c         **** 	This program is distributed in the hope that it will be useful,
  10:PID.c         **** 	but WITHOUT ANY WARRANTY; without even the implied warranty of
  11:PID.c         **** 	MERCHANTABILITY or FITNESS FOR A PARTICULAR PURPOSE.  See the
  12:PID.c         **** 	GNU General Public License for more details.
  13:PID.c         **** 
  14:PID.c         **** 	You should have received a copy of the GNU General Public License
  15:PID.c         **** 	along with this program.  If not, see <http://www.gnu.org/licenses/>.
  16:PID.c         **** 
  17:PID.c         **** 	Author website: http://www.geekfactory.mx
  18:PID.c         **** 	Author e-mail: ruben at geekfactory dot mx
  19:PID.c         ****  */
  20:PID.c         **** #include "PID.h"
  21:PID.c         **** 
  22:PID.c         **** pids_t pid_create(pids_t pid, float* in, float* out, float* set, float kp, float ki, float kd)
  23:PID.c         **** {
  24:PID.c         **** 	pid->input = in;
  25:PID.c         **** 	pid->output = out;
  26:PID.c         **** 	pid->setpoint = set;
  27:PID.c         **** 	pid->automode = false;
  28:PID.c         **** 
  29:PID.c         **** 	pid_limits(pid, 0, 255);
  30:PID.c         **** 
ARM GAS  C:\Users\tkam627\AppData\Local\Temp\ccEYBGNj.s 			page 2


  31:PID.c         **** 	// Set default sample time to 100 ms
  32:PID.c         **** 	pid->sampletime = 100 * (TICK_SECOND / 1000);
  33:PID.c         **** 
  34:PID.c         **** 	pid_direction(pid, E_PID_DIRECT);
  35:PID.c         **** 	pid_tune(pid, kp, ki, kd);
  36:PID.c         **** 
  37:PID.c         **** 	pid->lasttime = tick_get() - pid->sampletime;
  38:PID.c         **** 
  39:PID.c         **** 	return pid;
  40:PID.c         **** }
  41:PID.c         **** 
  42:PID.c         **** bool pid_need_compute(pids_t pid)
  43:PID.c         **** {
  28              		.loc 1 43 0
  29              		.cfi_startproc
  30              		@ args = 0, pretend = 0, frame = 0
  31              		@ frame_needed = 0, uses_anonymous_args = 0
  32              	.LVL0:
  33 0000 10B5     		push	{r4, lr}
  34              		.cfi_def_cfa_offset 8
  35              		.cfi_offset 4, -8
  36              		.cfi_offset 14, -4
  37 0002 0446     		mov	r4, r0
  44:PID.c         **** 	// Check if the PID period has elapsed
  45:PID.c         **** 	return(tick_get() - pid->lasttime >= pid->sampletime) ? true : false;
  38              		.loc 1 45 0
  39 0004 FFF7FEFF 		bl	tick_get
  40              	.LVL1:
  41 0008 A36A     		ldr	r3, [r4, #40]
  42 000a C01A     		subs	r0, r0, r3
  43 000c E36A     		ldr	r3, [r4, #44]
  46:PID.c         **** }
  44              		.loc 1 46 0
  45 000e 9842     		cmp	r0, r3
  46 0010 34BF     		ite	cc
  47 0012 0020     		movcc	r0, #0
  48 0014 0120     		movcs	r0, #1
  49 0016 10BD     		pop	{r4, pc}
  50              		.cfi_endproc
  51              	.LFE1:
  52              		.size	pid_need_compute, .-pid_need_compute
  53              		.global	__aeabi_f2iz
  54              		.global	__aeabi_fsub
  55              		.global	__aeabi_fmul
  56              		.global	__aeabi_fadd
  57              		.global	__aeabi_fcmpgt
  58              		.global	__aeabi_fcmplt
  59              		.section	.text.pid_compute,"ax",%progbits
  60              		.align	2
  61              		.global	pid_compute
  62              		.thumb
  63              		.thumb_func
  64              		.type	pid_compute, %function
  65              	pid_compute:
  66              	.LFB2:
  47:PID.c         **** 
  48:PID.c         **** void pid_compute(pids_t pid)
ARM GAS  C:\Users\tkam627\AppData\Local\Temp\ccEYBGNj.s 			page 3


  49:PID.c         **** {
  67              		.loc 1 49 0
  68              		.cfi_startproc
  69              		@ args = 0, pretend = 0, frame = 0
  70              		@ frame_needed = 0, uses_anonymous_args = 0
  71              	.LVL2:
  72 0000 2DE9F041 		push	{r4, r5, r6, r7, r8, lr}
  73              		.cfi_def_cfa_offset 24
  74              		.cfi_offset 4, -24
  75              		.cfi_offset 5, -20
  76              		.cfi_offset 6, -16
  77              		.cfi_offset 7, -12
  78              		.cfi_offset 8, -8
  79              		.cfi_offset 14, -4
  80 0004 0446     		mov	r4, r0
  50:PID.c         **** 	// Check if control is enabled
  51:PID.c         **** 	/*
  52:PID.c         ****         if (!pid->automode)
  53:PID.c         **** 		return false;
  54:PID.c         **** 	*/
  55:PID.c         **** 	float in = *(pid->input);
  81              		.loc 1 55 0
  82 0006 0368     		ldr	r3, [r0]
  83 0008 1E68     		ldr	r6, [r3]	@ float
  84              	.LVL3:
  56:PID.c         ****     printf("in %i \r\n", (int)in);
  85              		.loc 1 56 0
  86 000a 3046     		mov	r0, r6
  87              	.LVL4:
  88 000c FFF7FEFF 		bl	__aeabi_f2iz
  89              	.LVL5:
  90 0010 0146     		mov	r1, r0
  91 0012 3648     		ldr	r0, .L13
  92 0014 FFF7FEFF 		bl	printf
  93              	.LVL6:
  57:PID.c         **** 	// Compute error
  58:PID.c         **** 	float error = (*(pid->setpoint)) - in;
  94              		.loc 1 58 0
  95 0018 A368     		ldr	r3, [r4, #8]
  96 001a 3146     		mov	r1, r6
  97 001c 1868     		ldr	r0, [r3]	@ float
  98 001e FFF7FEFF 		bl	__aeabi_fsub
  99              	.LVL7:
 100 0022 0546     		mov	r5, r0
 101              	.LVL8:
  59:PID.c         ****     printf("error %i \r\n", (int)error);
 102              		.loc 1 59 0
 103 0024 FFF7FEFF 		bl	__aeabi_f2iz
 104              	.LVL9:
 105 0028 0146     		mov	r1, r0
 106 002a 3148     		ldr	r0, .L13+4
 107 002c FFF7FEFF 		bl	printf
 108              	.LVL10:
  60:PID.c         **** 	// Compute integral
  61:PID.c         **** 	pid->iterm += (pid->Ki * error);
 109              		.loc 1 61 0
 110 0030 2169     		ldr	r1, [r4, #16]	@ float
ARM GAS  C:\Users\tkam627\AppData\Local\Temp\ccEYBGNj.s 			page 4


 111 0032 2846     		mov	r0, r5
 112 0034 FFF7FEFF 		bl	__aeabi_fmul
 113              	.LVL11:
 114 0038 216A     		ldr	r1, [r4, #32]	@ float
 115 003a FFF7FEFF 		bl	__aeabi_fadd
 116              	.LVL12:
 117 003e 0746     		mov	r7, r0
 118 0040 2062     		str	r0, [r4, #32]	@ float
  62:PID.c         **** 	if (pid->iterm > pid->omax)
 119              		.loc 1 62 0
 120 0042 D4F81C80 		ldr	r8, [r4, #28]	@ float
 121 0046 4146     		mov	r1, r8
 122 0048 FFF7FEFF 		bl	__aeabi_fcmpgt
 123              	.LVL13:
 124 004c 10B1     		cbz	r0, .L11
  63:PID.c         **** 		pid->iterm = pid->omax;
 125              		.loc 1 63 0
 126 004e C4F82080 		str	r8, [r4, #32]	@ float
 127 0052 08E0     		b	.L6
 128              	.L11:
  64:PID.c         **** 	else if (pid->iterm < pid->omin)
 129              		.loc 1 64 0
 130 0054 D4F81880 		ldr	r8, [r4, #24]	@ float
 131 0058 4146     		mov	r1, r8
 132 005a 3846     		mov	r0, r7
 133 005c FFF7FEFF 		bl	__aeabi_fcmplt
 134              	.LVL14:
 135 0060 08B1     		cbz	r0, .L6
  65:PID.c         **** 		pid->iterm = pid->omin;
 136              		.loc 1 65 0
 137 0062 C4F82080 		str	r8, [r4, #32]	@ float
 138              	.L6:
  66:PID.c         ****     printf("iterm %i \r\n", (int)pid->iterm);
 139              		.loc 1 66 0
 140 0066 206A     		ldr	r0, [r4, #32]	@ float
 141 0068 FFF7FEFF 		bl	__aeabi_f2iz
 142              	.LVL15:
 143 006c 0146     		mov	r1, r0
 144 006e 2148     		ldr	r0, .L13+8
 145 0070 FFF7FEFF 		bl	printf
 146              	.LVL16:
  67:PID.c         **** 	// Compute differential on input
  68:PID.c         **** 	float dinput = in - pid->lastin;
 147              		.loc 1 68 0
 148 0074 616A     		ldr	r1, [r4, #36]	@ float
 149 0076 3046     		mov	r0, r6
 150 0078 FFF7FEFF 		bl	__aeabi_fsub
 151              	.LVL17:
 152 007c 0746     		mov	r7, r0
 153              	.LVL18:
  69:PID.c         ****     printf("dinput %i \r\n", (int)dinput);
 154              		.loc 1 69 0
 155 007e FFF7FEFF 		bl	__aeabi_f2iz
 156              	.LVL19:
 157 0082 0146     		mov	r1, r0
 158 0084 1C48     		ldr	r0, .L13+12
 159 0086 FFF7FEFF 		bl	printf
ARM GAS  C:\Users\tkam627\AppData\Local\Temp\ccEYBGNj.s 			page 5


 160              	.LVL20:
  70:PID.c         **** 	// Compute PID output
  71:PID.c         **** 	float out = pid->Kp * error + pid->iterm - pid->Kd * dinput;
 161              		.loc 1 71 0
 162 008a E168     		ldr	r1, [r4, #12]	@ float
 163 008c 2846     		mov	r0, r5
 164 008e FFF7FEFF 		bl	__aeabi_fmul
 165              	.LVL21:
 166 0092 216A     		ldr	r1, [r4, #32]	@ float
 167 0094 FFF7FEFF 		bl	__aeabi_fadd
 168              	.LVL22:
 169 0098 0546     		mov	r5, r0
 170              	.LVL23:
 171 009a 6169     		ldr	r1, [r4, #20]	@ float
 172 009c 3846     		mov	r0, r7
 173 009e FFF7FEFF 		bl	__aeabi_fmul
 174              	.LVL24:
 175 00a2 0146     		mov	r1, r0
 176 00a4 2846     		mov	r0, r5
 177 00a6 FFF7FEFF 		bl	__aeabi_fsub
 178              	.LVL25:
 179 00aa 0746     		mov	r7, r0
 180              	.LVL26:
  72:PID.c         **** 	// Apply limit to output value
  73:PID.c         **** 	if (out > pid->omax)
 181              		.loc 1 73 0
 182 00ac E569     		ldr	r5, [r4, #28]	@ float
 183 00ae 2946     		mov	r1, r5
 184 00b0 FFF7FEFF 		bl	__aeabi_fcmpgt
 185              	.LVL27:
 186 00b4 30B9     		cbnz	r0, .L8
  74:PID.c         **** 		out = pid->omax;
  75:PID.c         **** 	else if (out < pid->omin)
 187              		.loc 1 75 0
 188 00b6 A569     		ldr	r5, [r4, #24]	@ float
 189 00b8 2946     		mov	r1, r5
 190 00ba 3846     		mov	r0, r7
 191 00bc FFF7FEFF 		bl	__aeabi_fcmplt
 192              	.LVL28:
 193 00c0 00B9     		cbnz	r0, .L8
  71:PID.c         **** 	// Apply limit to output value
 194              		.loc 1 71 0
 195 00c2 3D46     		mov	r5, r7
 196              	.L8:
 197              	.LVL29:
  76:PID.c         **** 		out = pid->omin;
  77:PID.c         ****     printf("out %i \r\n", (int)out);
 198              		.loc 1 77 0
 199 00c4 2846     		mov	r0, r5
 200 00c6 FFF7FEFF 		bl	__aeabi_f2iz
 201              	.LVL30:
 202 00ca 0146     		mov	r1, r0
 203 00cc 0B48     		ldr	r0, .L13+16
 204 00ce FFF7FEFF 		bl	printf
 205              	.LVL31:
  78:PID.c         **** 	// Output to pointed variable
  79:PID.c         **** 	(*pid->output) = out;
ARM GAS  C:\Users\tkam627\AppData\Local\Temp\ccEYBGNj.s 			page 6


 206              		.loc 1 79 0
 207 00d2 6368     		ldr	r3, [r4, #4]
 208 00d4 1D60     		str	r5, [r3]	@ float
  80:PID.c         **** 	// Keep track of some variables for next execution
  81:PID.c         **** 	pid->lastin = in;
 209              		.loc 1 81 0
 210 00d6 6662     		str	r6, [r4, #36]	@ float
  82:PID.c         **** 	pid->lasttime = tick_get();;
 211              		.loc 1 82 0
 212 00d8 FFF7FEFF 		bl	tick_get
 213              	.LVL32:
 214 00dc 0146     		mov	r1, r0
 215 00de A062     		str	r0, [r4, #40]
  83:PID.c         ****     printf("lasttime %d \r\n", pid->lasttime);
 216              		.loc 1 83 0
 217 00e0 0748     		ldr	r0, .L13+20
 218 00e2 FFF7FEFF 		bl	printf
 219              	.LVL33:
 220 00e6 BDE8F081 		pop	{r4, r5, r6, r7, r8, pc}
 221              	.LVL34:
 222              	.L14:
 223 00ea 00BF     		.align	2
 224              	.L13:
 225 00ec 00000000 		.word	.LC0
 226 00f0 0C000000 		.word	.LC1
 227 00f4 18000000 		.word	.LC2
 228 00f8 24000000 		.word	.LC3
 229 00fc 34000000 		.word	.LC4
 230 0100 40000000 		.word	.LC5
 231              		.cfi_endproc
 232              	.LFE2:
 233              		.size	pid_compute, .-pid_compute
 234              		.global	__aeabi_ui2f
 235              		.global	__aeabi_fdiv
 236              		.section	.text.pid_tune,"ax",%progbits
 237              		.align	2
 238              		.global	pid_tune
 239              		.thumb
 240              		.thumb_func
 241              		.type	pid_tune, %function
 242              	pid_tune:
 243              	.LFB3:
  84:PID.c         **** }
  85:PID.c         **** 
  86:PID.c         **** void pid_tune(pids_t pid, float kp, float ki, float kd)
  87:PID.c         **** {
 244              		.loc 1 87 0
 245              		.cfi_startproc
 246              		@ args = 0, pretend = 0, frame = 0
 247              		@ frame_needed = 0, uses_anonymous_args = 0
 248              	.LVL35:
 249 0000 2DE9F843 		push	{r3, r4, r5, r6, r7, r8, r9, lr}
 250              		.cfi_def_cfa_offset 32
 251              		.cfi_offset 3, -32
 252              		.cfi_offset 4, -28
 253              		.cfi_offset 5, -24
 254              		.cfi_offset 6, -20
ARM GAS  C:\Users\tkam627\AppData\Local\Temp\ccEYBGNj.s 			page 7


 255              		.cfi_offset 7, -16
 256              		.cfi_offset 8, -12
 257              		.cfi_offset 9, -8
 258              		.cfi_offset 14, -4
 259 0004 0446     		mov	r4, r0
 260 0006 0D46     		mov	r5, r1
 261 0008 1646     		mov	r6, r2
 262 000a 1F46     		mov	r7, r3
  88:PID.c         **** 	// Check for validity
  89:PID.c         **** 	if (kp < 0 || ki < 0 || kd < 0)
 263              		.loc 1 89 0
 264 000c 0021     		movs	r1, #0
 265              	.LVL36:
 266 000e 2846     		mov	r0, r5
 267              	.LVL37:
 268 0010 FFF7FEFF 		bl	__aeabi_fcmplt
 269              	.LVL38:
 270 0014 0028     		cmp	r0, #0
 271 0016 30D1     		bne	.L15
 272              		.loc 1 89 0 is_stmt 0 discriminator 1
 273 0018 0021     		movs	r1, #0
 274 001a 3046     		mov	r0, r6
 275 001c FFF7FEFF 		bl	__aeabi_fcmplt
 276              	.LVL39:
 277 0020 58BB     		cbnz	r0, .L15
 278              		.loc 1 89 0 discriminator 2
 279 0022 0021     		movs	r1, #0
 280 0024 3846     		mov	r0, r7
 281 0026 FFF7FEFF 		bl	__aeabi_fcmplt
 282              	.LVL40:
 283 002a 30BB     		cbnz	r0, .L15
  90:PID.c         **** 		return;
  91:PID.c         **** 	
  92:PID.c         **** 	//Compute sample time in seconds
  93:PID.c         **** 	float ssec = ((float) pid->sampletime) / ((float) TICK_SECOND);
 284              		.loc 1 93 0 is_stmt 1
 285 002c E06A     		ldr	r0, [r4, #44]
 286 002e FFF7FEFF 		bl	__aeabi_ui2f
 287              	.LVL41:
 288 0032 1349     		ldr	r1, .L18
 289 0034 FFF7FEFF 		bl	__aeabi_fdiv
 290              	.LVL42:
 291 0038 8046     		mov	r8, r0
 292              	.LVL43:
  94:PID.c         **** 
  95:PID.c         **** 	pid->Kp = kp;
 293              		.loc 1 95 0
 294 003a E560     		str	r5, [r4, #12]	@ float
  96:PID.c         **** 	pid->Ki = ki * ssec;
 295              		.loc 1 96 0
 296 003c 0146     		mov	r1, r0
 297 003e 3046     		mov	r0, r6
 298              	.LVL44:
 299 0040 FFF7FEFF 		bl	__aeabi_fmul
 300              	.LVL45:
 301 0044 8146     		mov	r9, r0
 302 0046 2061     		str	r0, [r4, #16]	@ float
ARM GAS  C:\Users\tkam627\AppData\Local\Temp\ccEYBGNj.s 			page 8


  97:PID.c         **** 	pid->Kd = kd / ssec;
 303              		.loc 1 97 0
 304 0048 4146     		mov	r1, r8
 305 004a 3846     		mov	r0, r7
 306 004c FFF7FEFF 		bl	__aeabi_fdiv
 307              	.LVL46:
 308 0050 0646     		mov	r6, r0
 309              	.LVL47:
 310 0052 6061     		str	r0, [r4, #20]	@ float
  98:PID.c         **** 
  99:PID.c         **** 	if (pid->direction == E_PID_REVERSE) {
 311              		.loc 1 99 0
 312 0054 94F83130 		ldrb	r3, [r4, #49]	@ zero_extendqisi2
 313 0058 012B     		cmp	r3, #1
 314 005a 0ED1     		bne	.L15
 100:PID.c         **** 		pid->Kp = 0 - pid->Kp;
 315              		.loc 1 100 0
 316 005c 2946     		mov	r1, r5
 317 005e 0020     		movs	r0, #0
 318 0060 FFF7FEFF 		bl	__aeabi_fsub
 319              	.LVL48:
 320 0064 E060     		str	r0, [r4, #12]	@ float
 101:PID.c         **** 		pid->Ki = 0 - pid->Ki;
 321              		.loc 1 101 0
 322 0066 4946     		mov	r1, r9
 323 0068 0020     		movs	r0, #0
 324 006a FFF7FEFF 		bl	__aeabi_fsub
 325              	.LVL49:
 326 006e 2061     		str	r0, [r4, #16]	@ float
 102:PID.c         **** 		pid->Kd = 0 - pid->Kd;
 327              		.loc 1 102 0
 328 0070 3146     		mov	r1, r6
 329 0072 0020     		movs	r0, #0
 330 0074 FFF7FEFF 		bl	__aeabi_fsub
 331              	.LVL50:
 332 0078 6061     		str	r0, [r4, #20]	@ float
 333              	.LVL51:
 334              	.L15:
 335 007a BDE8F883 		pop	{r3, r4, r5, r6, r7, r8, r9, pc}
 336              	.LVL52:
 337              	.L19:
 338 007e 00BF     		.align	2
 339              	.L18:
 340 0080 0000C842 		.word	1120403456
 341              		.cfi_endproc
 342              	.LFE3:
 343              		.size	pid_tune, .-pid_tune
 344              		.section	.text.pid_sample,"ax",%progbits
 345              		.align	2
 346              		.global	pid_sample
 347              		.thumb
 348              		.thumb_func
 349              		.type	pid_sample, %function
 350              	pid_sample:
 351              	.LFB4:
 103:PID.c         **** 	}
 104:PID.c         **** }
ARM GAS  C:\Users\tkam627\AppData\Local\Temp\ccEYBGNj.s 			page 9


 105:PID.c         **** 
 106:PID.c         **** void pid_sample(pids_t pid, uint32_t time)
 107:PID.c         **** {
 352              		.loc 1 107 0
 353              		.cfi_startproc
 354              		@ args = 0, pretend = 0, frame = 0
 355              		@ frame_needed = 0, uses_anonymous_args = 0
 356              	.LVL53:
 108:PID.c         **** 	if (time > 0) {
 357              		.loc 1 108 0
 358 0000 B1B1     		cbz	r1, .L23
 107:PID.c         **** 	if (time > 0) {
 359              		.loc 1 107 0
 360 0002 38B5     		push	{r3, r4, r5, lr}
 361              		.cfi_def_cfa_offset 16
 362              		.cfi_offset 3, -16
 363              		.cfi_offset 4, -12
 364              		.cfi_offset 5, -8
 365              		.cfi_offset 14, -4
 366 0004 0446     		mov	r4, r0
 367              	.LBB2:
 109:PID.c         **** 		float ratio = (float) (time * (TICK_SECOND / 1000)) / (float) pid->sampletime;
 368              		.loc 1 109 0
 369 0006 C06A     		ldr	r0, [r0, #44]
 370              	.LVL54:
 371 0008 FFF7FEFF 		bl	__aeabi_ui2f
 372              	.LVL55:
 373 000c 0146     		mov	r1, r0
 374 000e 0020     		movs	r0, #0
 375 0010 FFF7FEFF 		bl	__aeabi_fdiv
 376              	.LVL56:
 377 0014 0546     		mov	r5, r0
 378              	.LVL57:
 110:PID.c         **** 		pid->Ki *= ratio;
 379              		.loc 1 110 0
 380 0016 0146     		mov	r1, r0
 381 0018 2069     		ldr	r0, [r4, #16]	@ float
 382              	.LVL58:
 383 001a FFF7FEFF 		bl	__aeabi_fmul
 384              	.LVL59:
 385 001e 2061     		str	r0, [r4, #16]	@ float
 111:PID.c         **** 		pid->Kd /= ratio;
 386              		.loc 1 111 0
 387 0020 2946     		mov	r1, r5
 388 0022 6069     		ldr	r0, [r4, #20]	@ float
 389 0024 FFF7FEFF 		bl	__aeabi_fdiv
 390              	.LVL60:
 391 0028 6061     		str	r0, [r4, #20]	@ float
 112:PID.c         **** 		pid->sampletime = time * (TICK_SECOND / 1000);
 392              		.loc 1 112 0
 393 002a 0023     		movs	r3, #0
 394 002c E362     		str	r3, [r4, #44]
 395 002e 38BD     		pop	{r3, r4, r5, pc}
 396              	.LVL61:
 397              	.L23:
 398              		.cfi_def_cfa_offset 0
 399              		.cfi_restore 3
ARM GAS  C:\Users\tkam627\AppData\Local\Temp\ccEYBGNj.s 			page 10


 400              		.cfi_restore 4
 401              		.cfi_restore 5
 402              		.cfi_restore 14
 403 0030 7047     		bx	lr
 404              	.LBE2:
 405              		.cfi_endproc
 406              	.LFE4:
 407              		.size	pid_sample, .-pid_sample
 408              		.global	__aeabi_fcmpge
 409 0032 00BF     		.section	.text.pid_limits,"ax",%progbits
 410              		.align	2
 411              		.global	pid_limits
 412              		.thumb
 413              		.thumb_func
 414              		.type	pid_limits, %function
 415              	pid_limits:
 416              	.LFB5:
 113:PID.c         **** 	}
 114:PID.c         **** }
 115:PID.c         **** 
 116:PID.c         **** void pid_limits(pids_t pid, float min, float max)
 117:PID.c         **** {
 417              		.loc 1 117 0
 418              		.cfi_startproc
 419              		@ args = 0, pretend = 0, frame = 0
 420              		@ frame_needed = 0, uses_anonymous_args = 0
 421              	.LVL62:
 422 0000 2DE9F041 		push	{r4, r5, r6, r7, r8, lr}
 423              		.cfi_def_cfa_offset 24
 424              		.cfi_offset 4, -24
 425              		.cfi_offset 5, -20
 426              		.cfi_offset 6, -16
 427              		.cfi_offset 7, -12
 428              		.cfi_offset 8, -8
 429              		.cfi_offset 14, -4
 430 0004 0446     		mov	r4, r0
 431 0006 0E46     		mov	r6, r1
 432 0008 1546     		mov	r5, r2
 118:PID.c         **** 	if (min >= max) return;
 433              		.loc 1 118 0
 434 000a 1146     		mov	r1, r2
 435              	.LVL63:
 436 000c 3046     		mov	r0, r6
 437              	.LVL64:
 438 000e FFF7FEFF 		bl	__aeabi_fcmpge
 439              	.LVL65:
 440 0012 28BB     		cbnz	r0, .L24
 119:PID.c         **** 	pid->omin = min;
 441              		.loc 1 119 0
 442 0014 A661     		str	r6, [r4, #24]	@ float
 120:PID.c         **** 	pid->omax = max;
 443              		.loc 1 120 0
 444 0016 E561     		str	r5, [r4, #28]	@ float
 121:PID.c         **** 	//Adjust output to new limits
 122:PID.c         **** 	if (pid->automode) {
 445              		.loc 1 122 0
 446 0018 94F83030 		ldrb	r3, [r4, #48]	@ zero_extendqisi2
ARM GAS  C:\Users\tkam627\AppData\Local\Temp\ccEYBGNj.s 			page 11


 447 001c 03B3     		cbz	r3, .L24
 123:PID.c         **** 		if (*(pid->output) > pid->omax)
 448              		.loc 1 123 0
 449 001e 6768     		ldr	r7, [r4, #4]
 450 0020 D7F80080 		ldr	r8, [r7]	@ float
 451 0024 4146     		mov	r1, r8
 452 0026 2846     		mov	r0, r5
 453 0028 FFF7FEFF 		bl	__aeabi_fcmplt
 454              	.LVL66:
 455 002c 08B1     		cbz	r0, .L37
 124:PID.c         **** 			*(pid->output) = pid->omax;
 456              		.loc 1 124 0
 457 002e 3D60     		str	r5, [r7]	@ float
 458 0030 05E0     		b	.L28
 459              	.L37:
 125:PID.c         **** 		else if (*(pid->output) < pid->omin)
 460              		.loc 1 125 0
 461 0032 4146     		mov	r1, r8
 462 0034 3046     		mov	r0, r6
 463 0036 FFF7FEFF 		bl	__aeabi_fcmpgt
 464              	.LVL67:
 465 003a 00B1     		cbz	r0, .L28
 126:PID.c         **** 			*(pid->output) = pid->omin;
 466              		.loc 1 126 0
 467 003c 3E60     		str	r6, [r7]	@ float
 468              	.L28:
 127:PID.c         **** 
 128:PID.c         **** 		if (pid->iterm > pid->omax)
 469              		.loc 1 128 0
 470 003e 256A     		ldr	r5, [r4, #32]	@ float
 471              	.LVL68:
 472 0040 E669     		ldr	r6, [r4, #28]	@ float
 473              	.LVL69:
 474 0042 3146     		mov	r1, r6
 475 0044 2846     		mov	r0, r5
 476 0046 FFF7FEFF 		bl	__aeabi_fcmpgt
 477              	.LVL70:
 478 004a 10B1     		cbz	r0, .L38
 129:PID.c         **** 			pid->iterm = pid->omax;
 479              		.loc 1 129 0
 480 004c 2662     		str	r6, [r4, #32]	@ float
 481 004e BDE8F081 		pop	{r4, r5, r6, r7, r8, pc}
 482              	.LVL71:
 483              	.L38:
 130:PID.c         **** 		else if (pid->iterm < pid->omin)
 484              		.loc 1 130 0
 485 0052 A669     		ldr	r6, [r4, #24]	@ float
 486 0054 3146     		mov	r1, r6
 487 0056 2846     		mov	r0, r5
 488 0058 FFF7FEFF 		bl	__aeabi_fcmplt
 489              	.LVL72:
 490 005c 00B1     		cbz	r0, .L24
 131:PID.c         **** 			pid->iterm = pid->omin;
 491              		.loc 1 131 0
 492 005e 2662     		str	r6, [r4, #32]	@ float
 493              	.L24:
 494 0060 BDE8F081 		pop	{r4, r5, r6, r7, r8, pc}
ARM GAS  C:\Users\tkam627\AppData\Local\Temp\ccEYBGNj.s 			page 12


 495              		.cfi_endproc
 496              	.LFE5:
 497              		.size	pid_limits, .-pid_limits
 498              		.section	.text.pid_auto,"ax",%progbits
 499              		.align	2
 500              		.global	pid_auto
 501              		.thumb
 502              		.thumb_func
 503              		.type	pid_auto, %function
 504              	pid_auto:
 505              	.LFB6:
 132:PID.c         **** 	}
 133:PID.c         **** }
 134:PID.c         **** 
 135:PID.c         **** void pid_auto(pids_t pid)
 136:PID.c         **** {
 506              		.loc 1 136 0
 507              		.cfi_startproc
 508              		@ args = 0, pretend = 0, frame = 0
 509              		@ frame_needed = 0, uses_anonymous_args = 0
 510              	.LVL73:
 137:PID.c         **** 	// If going from manual to auto
 138:PID.c         **** 	if (!pid->automode) {
 511              		.loc 1 138 0
 512 0000 90F83030 		ldrb	r3, [r0, #48]	@ zero_extendqisi2
 513 0004 D3B9     		cbnz	r3, .L50
 136:PID.c         **** 	// If going from manual to auto
 514              		.loc 1 136 0
 515 0006 70B5     		push	{r4, r5, r6, lr}
 516              		.cfi_def_cfa_offset 16
 517              		.cfi_offset 4, -16
 518              		.cfi_offset 5, -12
 519              		.cfi_offset 6, -8
 520              		.cfi_offset 14, -4
 521 0008 0446     		mov	r4, r0
 139:PID.c         **** 		pid->iterm = *(pid->output);
 522              		.loc 1 139 0
 523 000a 4368     		ldr	r3, [r0, #4]
 524 000c 1D68     		ldr	r5, [r3]	@ float
 525 000e 0562     		str	r5, [r0, #32]	@ float
 140:PID.c         **** 		pid->lastin = *(pid->input);
 526              		.loc 1 140 0
 527 0010 0368     		ldr	r3, [r0]
 528 0012 1B68     		ldr	r3, [r3]	@ float
 529 0014 4362     		str	r3, [r0, #36]	@ float
 141:PID.c         **** 		if (pid->iterm > pid->omax)
 530              		.loc 1 141 0
 531 0016 C669     		ldr	r6, [r0, #28]	@ float
 532 0018 3146     		mov	r1, r6
 533 001a 2846     		mov	r0, r5
 534              	.LVL74:
 535 001c FFF7FEFF 		bl	__aeabi_fcmpgt
 536              	.LVL75:
 537 0020 08B1     		cbz	r0, .L48
 142:PID.c         **** 			pid->iterm = pid->omax;
 538              		.loc 1 142 0
 539 0022 2662     		str	r6, [r4, #32]	@ float
ARM GAS  C:\Users\tkam627\AppData\Local\Temp\ccEYBGNj.s 			page 13


 540 0024 06E0     		b	.L44
 541              	.L48:
 143:PID.c         **** 		else if (pid->iterm < pid->omin)
 542              		.loc 1 143 0
 543 0026 A669     		ldr	r6, [r4, #24]	@ float
 544 0028 3146     		mov	r1, r6
 545 002a 2846     		mov	r0, r5
 546 002c FFF7FEFF 		bl	__aeabi_fcmplt
 547              	.LVL76:
 548 0030 00B1     		cbz	r0, .L44
 144:PID.c         **** 			pid->iterm = pid->omin;
 549              		.loc 1 144 0
 550 0032 2662     		str	r6, [r4, #32]	@ float
 551              	.L44:
 145:PID.c         **** 		pid->automode = true;
 552              		.loc 1 145 0
 553 0034 0123     		movs	r3, #1
 554 0036 84F83030 		strb	r3, [r4, #48]
 555 003a 70BD     		pop	{r4, r5, r6, pc}
 556              	.LVL77:
 557              	.L50:
 558              		.cfi_def_cfa_offset 0
 559              		.cfi_restore 4
 560              		.cfi_restore 5
 561              		.cfi_restore 6
 562              		.cfi_restore 14
 563 003c 7047     		bx	lr
 564              		.cfi_endproc
 565              	.LFE6:
 566              		.size	pid_auto, .-pid_auto
 567 003e 00BF     		.section	.text.pid_manual,"ax",%progbits
 568              		.align	2
 569              		.global	pid_manual
 570              		.thumb
 571              		.thumb_func
 572              		.type	pid_manual, %function
 573              	pid_manual:
 574              	.LFB7:
 146:PID.c         **** 	}
 147:PID.c         **** }
 148:PID.c         **** 
 149:PID.c         **** void pid_manual(pids_t pid)
 150:PID.c         **** {
 575              		.loc 1 150 0
 576              		.cfi_startproc
 577              		@ args = 0, pretend = 0, frame = 0
 578              		@ frame_needed = 0, uses_anonymous_args = 0
 579              		@ link register save eliminated.
 580              	.LVL78:
 151:PID.c         **** 	pid->automode = false;
 581              		.loc 1 151 0
 582 0000 0023     		movs	r3, #0
 583 0002 80F83030 		strb	r3, [r0, #48]
 584 0006 7047     		bx	lr
 585              		.cfi_endproc
 586              	.LFE7:
 587              		.size	pid_manual, .-pid_manual
ARM GAS  C:\Users\tkam627\AppData\Local\Temp\ccEYBGNj.s 			page 14


 588              		.section	.text.pid_direction,"ax",%progbits
 589              		.align	2
 590              		.global	pid_direction
 591              		.thumb
 592              		.thumb_func
 593              		.type	pid_direction, %function
 594              	pid_direction:
 595              	.LFB8:
 152:PID.c         **** }
 153:PID.c         **** 
 154:PID.c         **** void pid_direction(pids_t pid, enum pid_control_directions dir)
 155:PID.c         **** {
 596              		.loc 1 155 0
 597              		.cfi_startproc
 598              		@ args = 0, pretend = 0, frame = 0
 599              		@ frame_needed = 0, uses_anonymous_args = 0
 600              	.LVL79:
 601 0000 38B5     		push	{r3, r4, r5, lr}
 602              		.cfi_def_cfa_offset 16
 603              		.cfi_offset 3, -16
 604              		.cfi_offset 4, -12
 605              		.cfi_offset 5, -8
 606              		.cfi_offset 14, -4
 607 0002 0446     		mov	r4, r0
 608 0004 0D46     		mov	r5, r1
 156:PID.c         **** 	if (pid->automode && pid->direction != dir) {
 609              		.loc 1 156 0
 610 0006 90F83030 		ldrb	r3, [r0, #48]	@ zero_extendqisi2
 611 000a 93B1     		cbz	r3, .L53
 612              		.loc 1 156 0 is_stmt 0 discriminator 1
 613 000c 90F83130 		ldrb	r3, [r0, #49]	@ zero_extendqisi2
 614 0010 8B42     		cmp	r3, r1
 615 0012 0ED0     		beq	.L53
 157:PID.c         **** 		pid->Kp = (0 - pid->Kp);
 616              		.loc 1 157 0 is_stmt 1
 617 0014 C168     		ldr	r1, [r0, #12]	@ float
 618              	.LVL80:
 619 0016 0020     		movs	r0, #0
 620              	.LVL81:
 621 0018 FFF7FEFF 		bl	__aeabi_fsub
 622              	.LVL82:
 623 001c E060     		str	r0, [r4, #12]	@ float
 158:PID.c         **** 		pid->Ki = (0 - pid->Ki);
 624              		.loc 1 158 0
 625 001e 2169     		ldr	r1, [r4, #16]	@ float
 626 0020 0020     		movs	r0, #0
 627 0022 FFF7FEFF 		bl	__aeabi_fsub
 628              	.LVL83:
 629 0026 2061     		str	r0, [r4, #16]	@ float
 159:PID.c         **** 		pid->Kd = (0 - pid->Kd);
 630              		.loc 1 159 0
 631 0028 6169     		ldr	r1, [r4, #20]	@ float
 632 002a 0020     		movs	r0, #0
 633 002c FFF7FEFF 		bl	__aeabi_fsub
 634              	.LVL84:
 635 0030 6061     		str	r0, [r4, #20]	@ float
 636              	.L53:
ARM GAS  C:\Users\tkam627\AppData\Local\Temp\ccEYBGNj.s 			page 15


 160:PID.c         **** 	}
 161:PID.c         **** 	pid->direction = dir;
 637              		.loc 1 161 0
 638 0032 84F83150 		strb	r5, [r4, #49]
 639 0036 38BD     		pop	{r3, r4, r5, pc}
 640              		.cfi_endproc
 641              	.LFE8:
 642              		.size	pid_direction, .-pid_direction
 643              		.section	.text.pid_create,"ax",%progbits
 644              		.align	2
 645              		.global	pid_create
 646              		.thumb
 647              		.thumb_func
 648              		.type	pid_create, %function
 649              	pid_create:
 650              	.LFB0:
  23:PID.c         **** 	pid->input = in;
 651              		.loc 1 23 0
 652              		.cfi_startproc
 653              		@ args = 12, pretend = 0, frame = 0
 654              		@ frame_needed = 0, uses_anonymous_args = 0
 655              	.LVL85:
 656 0000 38B5     		push	{r3, r4, r5, lr}
 657              		.cfi_def_cfa_offset 16
 658              		.cfi_offset 3, -16
 659              		.cfi_offset 4, -12
 660              		.cfi_offset 5, -8
 661              		.cfi_offset 14, -4
 662 0002 0446     		mov	r4, r0
  24:PID.c         **** 	pid->output = out;
 663              		.loc 1 24 0
 664 0004 0160     		str	r1, [r0]
  25:PID.c         **** 	pid->setpoint = set;
 665              		.loc 1 25 0
 666 0006 4260     		str	r2, [r0, #4]
  26:PID.c         **** 	pid->automode = false;
 667              		.loc 1 26 0
 668 0008 8360     		str	r3, [r0, #8]
  27:PID.c         **** 
 669              		.loc 1 27 0
 670 000a 0025     		movs	r5, #0
 671 000c 80F83050 		strb	r5, [r0, #48]
  29:PID.c         **** 
 672              		.loc 1 29 0
 673 0010 0A4A     		ldr	r2, .L57
 674              	.LVL86:
 675 0012 0021     		movs	r1, #0
 676              	.LVL87:
 677 0014 FFF7FEFF 		bl	pid_limits
 678              	.LVL88:
  32:PID.c         **** 
 679              		.loc 1 32 0
 680 0018 E562     		str	r5, [r4, #44]
  34:PID.c         **** 	pid_tune(pid, kp, ki, kd);
 681              		.loc 1 34 0
 682 001a 2946     		mov	r1, r5
 683 001c 2046     		mov	r0, r4
ARM GAS  C:\Users\tkam627\AppData\Local\Temp\ccEYBGNj.s 			page 16


 684 001e FFF7FEFF 		bl	pid_direction
 685              	.LVL89:
  35:PID.c         **** 
 686              		.loc 1 35 0
 687 0022 069B     		ldr	r3, [sp, #24]	@ float
 688 0024 059A     		ldr	r2, [sp, #20]	@ float
 689 0026 0499     		ldr	r1, [sp, #16]	@ float
 690 0028 2046     		mov	r0, r4
 691 002a FFF7FEFF 		bl	pid_tune
 692              	.LVL90:
  37:PID.c         **** 
 693              		.loc 1 37 0
 694 002e FFF7FEFF 		bl	tick_get
 695              	.LVL91:
 696 0032 E36A     		ldr	r3, [r4, #44]
 697 0034 C01A     		subs	r0, r0, r3
 698 0036 A062     		str	r0, [r4, #40]
  40:PID.c         **** 
 699              		.loc 1 40 0
 700 0038 2046     		mov	r0, r4
 701 003a 38BD     		pop	{r3, r4, r5, pc}
 702              	.LVL92:
 703              	.L58:
 704              		.align	2
 705              	.L57:
 706 003c 00007F43 		.word	1132396544
 707              		.cfi_endproc
 708              	.LFE0:
 709              		.size	pid_create, .-pid_create
 710              		.section	.rodata.str1.4,"aMS",%progbits,1
 711              		.align	2
 712              	.LC0:
 713 0000 696E2025 		.ascii	"in %i \015\012\000"
 713      69200D0A 
 713      00
 714 0009 000000   		.space	3
 715              	.LC1:
 716 000c 6572726F 		.ascii	"error %i \015\012\000"
 716      72202569 
 716      200D0A00 
 717              	.LC2:
 718 0018 69746572 		.ascii	"iterm %i \015\012\000"
 718      6D202569 
 718      200D0A00 
 719              	.LC3:
 720 0024 64696E70 		.ascii	"dinput %i \015\012\000"
 720      75742025 
 720      69200D0A 
 720      00
 721 0031 000000   		.space	3
 722              	.LC4:
 723 0034 6F757420 		.ascii	"out %i \015\012\000"
 723      2569200D 
 723      0A00
 724 003e 0000     		.space	2
 725              	.LC5:
 726 0040 6C617374 		.ascii	"lasttime %d \015\012\000"
ARM GAS  C:\Users\tkam627\AppData\Local\Temp\ccEYBGNj.s 			page 17


 726      74696D65 
 726      20256420 
 726      0D0A00
 727              		.text
 728              	.Letext0:
 729              		.file 2 "c:\\program files (x86)\\cypress\\psoc creator\\4.2\\psoc creator\\import\\gnu\\arm\\5.4.
 730              		.file 3 "c:\\program files (x86)\\cypress\\psoc creator\\4.2\\psoc creator\\import\\gnu\\arm\\5.4.
 731              		.file 4 "PID.h"
 732              		.file 5 "Tick.h"
 733              		.file 6 "<built-in>"