ARM GAS  C:\Users\tkam627\AppData\Local\Temp\ccJ5TRDi.s 			page 1


   1              		.syntax unified
   2              		.cpu cortex-m3
   3              		.fpu softvfp
   4              		.eabi_attribute 20, 1
   5              		.eabi_attribute 21, 1
   6              		.eabi_attribute 23, 3
   7              		.eabi_attribute 24, 1
   8              		.eabi_attribute 25, 1
   9              		.eabi_attribute 26, 1
  10              		.eabi_attribute 30, 1
  11              		.eabi_attribute 34, 1
  12              		.eabi_attribute 18, 4
  13              		.thumb
  14              		.syntax unified
  15              		.file	"PWM2_PM.c"
  16              		.text
  17              	.Ltext0:
  18              		.cfi_sections	.debug_frame
  19              		.section	.text.PWM2_SaveConfig,"ax",%progbits
  20              		.align	2
  21              		.global	PWM2_SaveConfig
  22              		.thumb
  23              		.thumb_func
  24              		.type	PWM2_SaveConfig, %function
  25              	PWM2_SaveConfig:
  26              	.LFB0:
  27              		.file 1 "Generated_Source\\PSoC5\\PWM2_PM.c"
   1:Generated_Source\PSoC5/PWM2_PM.c **** /*******************************************************************************
   2:Generated_Source\PSoC5/PWM2_PM.c **** * File Name: PWM2_PM.c
   3:Generated_Source\PSoC5/PWM2_PM.c **** * Version 3.30
   4:Generated_Source\PSoC5/PWM2_PM.c **** *
   5:Generated_Source\PSoC5/PWM2_PM.c **** * Description:
   6:Generated_Source\PSoC5/PWM2_PM.c **** *  This file provides the power management source code to API for the
   7:Generated_Source\PSoC5/PWM2_PM.c **** *  PWM.
   8:Generated_Source\PSoC5/PWM2_PM.c **** *
   9:Generated_Source\PSoC5/PWM2_PM.c **** * Note:
  10:Generated_Source\PSoC5/PWM2_PM.c **** *
  11:Generated_Source\PSoC5/PWM2_PM.c **** ********************************************************************************
  12:Generated_Source\PSoC5/PWM2_PM.c **** * Copyright 2008-2014, Cypress Semiconductor Corporation.  All rights reserved.
  13:Generated_Source\PSoC5/PWM2_PM.c **** * You may use this file only in accordance with the license, terms, conditions,
  14:Generated_Source\PSoC5/PWM2_PM.c **** * disclaimers, and limitations in the end user license agreement accompanying
  15:Generated_Source\PSoC5/PWM2_PM.c **** * the software package with which this file was provided.
  16:Generated_Source\PSoC5/PWM2_PM.c **** *******************************************************************************/
  17:Generated_Source\PSoC5/PWM2_PM.c **** 
  18:Generated_Source\PSoC5/PWM2_PM.c **** #include "PWM2.h"
  19:Generated_Source\PSoC5/PWM2_PM.c **** 
  20:Generated_Source\PSoC5/PWM2_PM.c **** static PWM2_backupStruct PWM2_backup;
  21:Generated_Source\PSoC5/PWM2_PM.c **** 
  22:Generated_Source\PSoC5/PWM2_PM.c **** 
  23:Generated_Source\PSoC5/PWM2_PM.c **** /*******************************************************************************
  24:Generated_Source\PSoC5/PWM2_PM.c **** * Function Name: PWM2_SaveConfig
  25:Generated_Source\PSoC5/PWM2_PM.c **** ********************************************************************************
  26:Generated_Source\PSoC5/PWM2_PM.c **** *
  27:Generated_Source\PSoC5/PWM2_PM.c **** * Summary:
  28:Generated_Source\PSoC5/PWM2_PM.c **** *  Saves the current user configuration of the component.
  29:Generated_Source\PSoC5/PWM2_PM.c **** *
  30:Generated_Source\PSoC5/PWM2_PM.c **** * Parameters:
ARM GAS  C:\Users\tkam627\AppData\Local\Temp\ccJ5TRDi.s 			page 2


  31:Generated_Source\PSoC5/PWM2_PM.c **** *  None
  32:Generated_Source\PSoC5/PWM2_PM.c **** *
  33:Generated_Source\PSoC5/PWM2_PM.c **** * Return:
  34:Generated_Source\PSoC5/PWM2_PM.c **** *  None
  35:Generated_Source\PSoC5/PWM2_PM.c **** *
  36:Generated_Source\PSoC5/PWM2_PM.c **** * Global variables:
  37:Generated_Source\PSoC5/PWM2_PM.c **** *  PWM2_backup:  Variables of this global structure are modified to
  38:Generated_Source\PSoC5/PWM2_PM.c **** *  store the values of non retention configuration registers when Sleep() API is
  39:Generated_Source\PSoC5/PWM2_PM.c **** *  called.
  40:Generated_Source\PSoC5/PWM2_PM.c **** *
  41:Generated_Source\PSoC5/PWM2_PM.c **** *******************************************************************************/
  42:Generated_Source\PSoC5/PWM2_PM.c **** void PWM2_SaveConfig(void) 
  43:Generated_Source\PSoC5/PWM2_PM.c **** {
  28              		.loc 1 43 0
  29              		.cfi_startproc
  30              		@ args = 0, pretend = 0, frame = 0
  31              		@ frame_needed = 0, uses_anonymous_args = 0
  32 0000 10B5     		push	{r4, lr}
  33              		.cfi_def_cfa_offset 8
  34              		.cfi_offset 4, -8
  35              		.cfi_offset 14, -4
  44:Generated_Source\PSoC5/PWM2_PM.c **** 
  45:Generated_Source\PSoC5/PWM2_PM.c ****     #if(!PWM2_UsingFixedFunction)
  46:Generated_Source\PSoC5/PWM2_PM.c ****         #if(!PWM2_PWMModeIsCenterAligned)
  47:Generated_Source\PSoC5/PWM2_PM.c ****             PWM2_backup.PWMPeriod = PWM2_ReadPeriod();
  36              		.loc 1 47 0
  37 0002 FFF7FEFF 		bl	PWM2_ReadPeriod
  38              	.LVL0:
  39 0006 044C     		ldr	r4, .L3
  40 0008 A070     		strb	r0, [r4, #2]
  48:Generated_Source\PSoC5/PWM2_PM.c ****         #endif /* (!PWM2_PWMModeIsCenterAligned) */
  49:Generated_Source\PSoC5/PWM2_PM.c ****         PWM2_backup.PWMUdb = PWM2_ReadCounter();
  41              		.loc 1 49 0
  42 000a FFF7FEFF 		bl	PWM2_ReadCounter
  43              	.LVL1:
  44 000e 6070     		strb	r0, [r4, #1]
  50:Generated_Source\PSoC5/PWM2_PM.c ****         #if (PWM2_UseStatus)
  51:Generated_Source\PSoC5/PWM2_PM.c ****             PWM2_backup.InterruptMaskValue = PWM2_STATUS_MASK;
  52:Generated_Source\PSoC5/PWM2_PM.c ****         #endif /* (PWM2_UseStatus) */
  53:Generated_Source\PSoC5/PWM2_PM.c **** 
  54:Generated_Source\PSoC5/PWM2_PM.c ****         #if(PWM2_DeadBandMode == PWM2__B_PWM__DBM_256_CLOCKS || \
  55:Generated_Source\PSoC5/PWM2_PM.c ****             PWM2_DeadBandMode == PWM2__B_PWM__DBM_2_4_CLOCKS)
  56:Generated_Source\PSoC5/PWM2_PM.c ****             PWM2_backup.PWMdeadBandValue = PWM2_ReadDeadTime();
  57:Generated_Source\PSoC5/PWM2_PM.c ****         #endif /*  deadband count is either 2-4 clocks or 256 clocks */
  58:Generated_Source\PSoC5/PWM2_PM.c **** 
  59:Generated_Source\PSoC5/PWM2_PM.c ****         #if(PWM2_KillModeMinTime)
  60:Generated_Source\PSoC5/PWM2_PM.c ****              PWM2_backup.PWMKillCounterPeriod = PWM2_ReadKillTime();
  61:Generated_Source\PSoC5/PWM2_PM.c ****         #endif /* (PWM2_KillModeMinTime) */
  62:Generated_Source\PSoC5/PWM2_PM.c **** 
  63:Generated_Source\PSoC5/PWM2_PM.c ****         #if(PWM2_UseControl)
  64:Generated_Source\PSoC5/PWM2_PM.c ****             PWM2_backup.PWMControlRegister = PWM2_ReadControlRegister();
  45              		.loc 1 64 0
  46 0010 FFF7FEFF 		bl	PWM2_ReadControlRegister
  47              	.LVL2:
  48 0014 E070     		strb	r0, [r4, #3]
  49 0016 10BD     		pop	{r4, pc}
  50              	.L4:
ARM GAS  C:\Users\tkam627\AppData\Local\Temp\ccJ5TRDi.s 			page 3


  51              		.align	2
  52              	.L3:
  53 0018 00000000 		.word	.LANCHOR0
  54              		.cfi_endproc
  55              	.LFE0:
  56              		.size	PWM2_SaveConfig, .-PWM2_SaveConfig
  57              		.section	.text.PWM2_RestoreConfig,"ax",%progbits
  58              		.align	2
  59              		.global	PWM2_RestoreConfig
  60              		.thumb
  61              		.thumb_func
  62              		.type	PWM2_RestoreConfig, %function
  63              	PWM2_RestoreConfig:
  64              	.LFB1:
  65:Generated_Source\PSoC5/PWM2_PM.c ****         #endif /* (PWM2_UseControl) */
  66:Generated_Source\PSoC5/PWM2_PM.c ****     #endif  /* (!PWM2_UsingFixedFunction) */
  67:Generated_Source\PSoC5/PWM2_PM.c **** }
  68:Generated_Source\PSoC5/PWM2_PM.c **** 
  69:Generated_Source\PSoC5/PWM2_PM.c **** 
  70:Generated_Source\PSoC5/PWM2_PM.c **** /*******************************************************************************
  71:Generated_Source\PSoC5/PWM2_PM.c **** * Function Name: PWM2_RestoreConfig
  72:Generated_Source\PSoC5/PWM2_PM.c **** ********************************************************************************
  73:Generated_Source\PSoC5/PWM2_PM.c **** *
  74:Generated_Source\PSoC5/PWM2_PM.c **** * Summary:
  75:Generated_Source\PSoC5/PWM2_PM.c **** *  Restores the current user configuration of the component.
  76:Generated_Source\PSoC5/PWM2_PM.c **** *
  77:Generated_Source\PSoC5/PWM2_PM.c **** * Parameters:
  78:Generated_Source\PSoC5/PWM2_PM.c **** *  None
  79:Generated_Source\PSoC5/PWM2_PM.c **** *
  80:Generated_Source\PSoC5/PWM2_PM.c **** * Return:
  81:Generated_Source\PSoC5/PWM2_PM.c **** *  None
  82:Generated_Source\PSoC5/PWM2_PM.c **** *
  83:Generated_Source\PSoC5/PWM2_PM.c **** * Global variables:
  84:Generated_Source\PSoC5/PWM2_PM.c **** *  PWM2_backup:  Variables of this global structure are used to
  85:Generated_Source\PSoC5/PWM2_PM.c **** *  restore the values of non retention registers on wakeup from sleep mode.
  86:Generated_Source\PSoC5/PWM2_PM.c **** *
  87:Generated_Source\PSoC5/PWM2_PM.c **** *******************************************************************************/
  88:Generated_Source\PSoC5/PWM2_PM.c **** void PWM2_RestoreConfig(void) 
  89:Generated_Source\PSoC5/PWM2_PM.c **** {
  65              		.loc 1 89 0
  66              		.cfi_startproc
  67              		@ args = 0, pretend = 0, frame = 0
  68              		@ frame_needed = 0, uses_anonymous_args = 0
  69 0000 10B5     		push	{r4, lr}
  70              		.cfi_def_cfa_offset 8
  71              		.cfi_offset 4, -8
  72              		.cfi_offset 14, -4
  90:Generated_Source\PSoC5/PWM2_PM.c ****         #if(!PWM2_UsingFixedFunction)
  91:Generated_Source\PSoC5/PWM2_PM.c ****             #if(!PWM2_PWMModeIsCenterAligned)
  92:Generated_Source\PSoC5/PWM2_PM.c ****                 PWM2_WritePeriod(PWM2_backup.PWMPeriod);
  73              		.loc 1 92 0
  74 0002 054C     		ldr	r4, .L7
  75 0004 A078     		ldrb	r0, [r4, #2]	@ zero_extendqisi2
  76 0006 FFF7FEFF 		bl	PWM2_WritePeriod
  77              	.LVL3:
  93:Generated_Source\PSoC5/PWM2_PM.c ****             #endif /* (!PWM2_PWMModeIsCenterAligned) */
  94:Generated_Source\PSoC5/PWM2_PM.c **** 
ARM GAS  C:\Users\tkam627\AppData\Local\Temp\ccJ5TRDi.s 			page 4


  95:Generated_Source\PSoC5/PWM2_PM.c ****             PWM2_WriteCounter(PWM2_backup.PWMUdb);
  78              		.loc 1 95 0
  79 000a 6078     		ldrb	r0, [r4, #1]	@ zero_extendqisi2
  80 000c FFF7FEFF 		bl	PWM2_WriteCounter
  81              	.LVL4:
  96:Generated_Source\PSoC5/PWM2_PM.c **** 
  97:Generated_Source\PSoC5/PWM2_PM.c ****             #if (PWM2_UseStatus)
  98:Generated_Source\PSoC5/PWM2_PM.c ****                 PWM2_STATUS_MASK = PWM2_backup.InterruptMaskValue;
  99:Generated_Source\PSoC5/PWM2_PM.c ****             #endif /* (PWM2_UseStatus) */
 100:Generated_Source\PSoC5/PWM2_PM.c **** 
 101:Generated_Source\PSoC5/PWM2_PM.c ****             #if(PWM2_DeadBandMode == PWM2__B_PWM__DBM_256_CLOCKS || \
 102:Generated_Source\PSoC5/PWM2_PM.c ****                 PWM2_DeadBandMode == PWM2__B_PWM__DBM_2_4_CLOCKS)
 103:Generated_Source\PSoC5/PWM2_PM.c ****                 PWM2_WriteDeadTime(PWM2_backup.PWMdeadBandValue);
 104:Generated_Source\PSoC5/PWM2_PM.c ****             #endif /* deadband count is either 2-4 clocks or 256 clocks */
 105:Generated_Source\PSoC5/PWM2_PM.c **** 
 106:Generated_Source\PSoC5/PWM2_PM.c ****             #if(PWM2_KillModeMinTime)
 107:Generated_Source\PSoC5/PWM2_PM.c ****                 PWM2_WriteKillTime(PWM2_backup.PWMKillCounterPeriod);
 108:Generated_Source\PSoC5/PWM2_PM.c ****             #endif /* (PWM2_KillModeMinTime) */
 109:Generated_Source\PSoC5/PWM2_PM.c **** 
 110:Generated_Source\PSoC5/PWM2_PM.c ****             #if(PWM2_UseControl)
 111:Generated_Source\PSoC5/PWM2_PM.c ****                 PWM2_WriteControlRegister(PWM2_backup.PWMControlRegister);
  82              		.loc 1 111 0
  83 0010 E078     		ldrb	r0, [r4, #3]	@ zero_extendqisi2
  84 0012 FFF7FEFF 		bl	PWM2_WriteControlRegister
  85              	.LVL5:
  86 0016 10BD     		pop	{r4, pc}
  87              	.L8:
  88              		.align	2
  89              	.L7:
  90 0018 00000000 		.word	.LANCHOR0
  91              		.cfi_endproc
  92              	.LFE1:
  93              		.size	PWM2_RestoreConfig, .-PWM2_RestoreConfig
  94              		.section	.text.PWM2_Sleep,"ax",%progbits
  95              		.align	2
  96              		.global	PWM2_Sleep
  97              		.thumb
  98              		.thumb_func
  99              		.type	PWM2_Sleep, %function
 100              	PWM2_Sleep:
 101              	.LFB2:
 112:Generated_Source\PSoC5/PWM2_PM.c ****             #endif /* (PWM2_UseControl) */
 113:Generated_Source\PSoC5/PWM2_PM.c ****         #endif  /* (!PWM2_UsingFixedFunction) */
 114:Generated_Source\PSoC5/PWM2_PM.c ****     }
 115:Generated_Source\PSoC5/PWM2_PM.c **** 
 116:Generated_Source\PSoC5/PWM2_PM.c **** 
 117:Generated_Source\PSoC5/PWM2_PM.c **** /*******************************************************************************
 118:Generated_Source\PSoC5/PWM2_PM.c **** * Function Name: PWM2_Sleep
 119:Generated_Source\PSoC5/PWM2_PM.c **** ********************************************************************************
 120:Generated_Source\PSoC5/PWM2_PM.c **** *
 121:Generated_Source\PSoC5/PWM2_PM.c **** * Summary:
 122:Generated_Source\PSoC5/PWM2_PM.c **** *  Disables block's operation and saves the user configuration. Should be called
 123:Generated_Source\PSoC5/PWM2_PM.c **** *  just prior to entering sleep.
 124:Generated_Source\PSoC5/PWM2_PM.c **** *
 125:Generated_Source\PSoC5/PWM2_PM.c **** * Parameters:
 126:Generated_Source\PSoC5/PWM2_PM.c **** *  None
 127:Generated_Source\PSoC5/PWM2_PM.c **** *
ARM GAS  C:\Users\tkam627\AppData\Local\Temp\ccJ5TRDi.s 			page 5


 128:Generated_Source\PSoC5/PWM2_PM.c **** * Return:
 129:Generated_Source\PSoC5/PWM2_PM.c **** *  None
 130:Generated_Source\PSoC5/PWM2_PM.c **** *
 131:Generated_Source\PSoC5/PWM2_PM.c **** * Global variables:
 132:Generated_Source\PSoC5/PWM2_PM.c **** *  PWM2_backup.PWMEnableState:  Is modified depending on the enable
 133:Generated_Source\PSoC5/PWM2_PM.c **** *  state of the block before entering sleep mode.
 134:Generated_Source\PSoC5/PWM2_PM.c **** *
 135:Generated_Source\PSoC5/PWM2_PM.c **** *******************************************************************************/
 136:Generated_Source\PSoC5/PWM2_PM.c **** void PWM2_Sleep(void) 
 137:Generated_Source\PSoC5/PWM2_PM.c **** {
 102              		.loc 1 137 0
 103              		.cfi_startproc
 104              		@ args = 0, pretend = 0, frame = 0
 105              		@ frame_needed = 0, uses_anonymous_args = 0
 106 0000 08B5     		push	{r3, lr}
 107              		.cfi_def_cfa_offset 8
 108              		.cfi_offset 3, -8
 109              		.cfi_offset 14, -4
 138:Generated_Source\PSoC5/PWM2_PM.c ****     #if(PWM2_UseControl)
 139:Generated_Source\PSoC5/PWM2_PM.c ****         if(PWM2_CTRL_ENABLE == (PWM2_CONTROL & PWM2_CTRL_ENABLE))
 110              		.loc 1 139 0
 111 0002 084B     		ldr	r3, .L13
 112 0004 1B78     		ldrb	r3, [r3]	@ zero_extendqisi2
 113 0006 13F0800F 		tst	r3, #128
 114 000a 03D0     		beq	.L10
 140:Generated_Source\PSoC5/PWM2_PM.c ****         {
 141:Generated_Source\PSoC5/PWM2_PM.c ****             /*Component is enabled */
 142:Generated_Source\PSoC5/PWM2_PM.c ****             PWM2_backup.PWMEnableState = 1u;
 115              		.loc 1 142 0
 116 000c 0122     		movs	r2, #1
 117 000e 064B     		ldr	r3, .L13+4
 118 0010 1A70     		strb	r2, [r3]
 119 0012 02E0     		b	.L11
 120              	.L10:
 143:Generated_Source\PSoC5/PWM2_PM.c ****         }
 144:Generated_Source\PSoC5/PWM2_PM.c ****         else
 145:Generated_Source\PSoC5/PWM2_PM.c ****         {
 146:Generated_Source\PSoC5/PWM2_PM.c ****             /* Component is disabled */
 147:Generated_Source\PSoC5/PWM2_PM.c ****             PWM2_backup.PWMEnableState = 0u;
 121              		.loc 1 147 0
 122 0014 0022     		movs	r2, #0
 123 0016 044B     		ldr	r3, .L13+4
 124 0018 1A70     		strb	r2, [r3]
 125              	.L11:
 148:Generated_Source\PSoC5/PWM2_PM.c ****         }
 149:Generated_Source\PSoC5/PWM2_PM.c ****     #endif /* (PWM2_UseControl) */
 150:Generated_Source\PSoC5/PWM2_PM.c **** 
 151:Generated_Source\PSoC5/PWM2_PM.c ****     /* Stop component */
 152:Generated_Source\PSoC5/PWM2_PM.c ****     PWM2_Stop();
 126              		.loc 1 152 0
 127 001a FFF7FEFF 		bl	PWM2_Stop
 128              	.LVL6:
 153:Generated_Source\PSoC5/PWM2_PM.c **** 
 154:Generated_Source\PSoC5/PWM2_PM.c ****     /* Save registers configuration */
 155:Generated_Source\PSoC5/PWM2_PM.c ****     PWM2_SaveConfig();
 129              		.loc 1 155 0
 130 001e FFF7FEFF 		bl	PWM2_SaveConfig
ARM GAS  C:\Users\tkam627\AppData\Local\Temp\ccJ5TRDi.s 			page 6


 131              	.LVL7:
 132 0022 08BD     		pop	{r3, pc}
 133              	.L14:
 134              		.align	2
 135              	.L13:
 136 0024 7A650040 		.word	1073767802
 137 0028 00000000 		.word	.LANCHOR0
 138              		.cfi_endproc
 139              	.LFE2:
 140              		.size	PWM2_Sleep, .-PWM2_Sleep
 141              		.section	.text.PWM2_Wakeup,"ax",%progbits
 142              		.align	2
 143              		.global	PWM2_Wakeup
 144              		.thumb
 145              		.thumb_func
 146              		.type	PWM2_Wakeup, %function
 147              	PWM2_Wakeup:
 148              	.LFB3:
 156:Generated_Source\PSoC5/PWM2_PM.c **** }
 157:Generated_Source\PSoC5/PWM2_PM.c **** 
 158:Generated_Source\PSoC5/PWM2_PM.c **** 
 159:Generated_Source\PSoC5/PWM2_PM.c **** /*******************************************************************************
 160:Generated_Source\PSoC5/PWM2_PM.c **** * Function Name: PWM2_Wakeup
 161:Generated_Source\PSoC5/PWM2_PM.c **** ********************************************************************************
 162:Generated_Source\PSoC5/PWM2_PM.c **** *
 163:Generated_Source\PSoC5/PWM2_PM.c **** * Summary:
 164:Generated_Source\PSoC5/PWM2_PM.c **** *  Restores and enables the user configuration. Should be called just after
 165:Generated_Source\PSoC5/PWM2_PM.c **** *  awaking from sleep.
 166:Generated_Source\PSoC5/PWM2_PM.c **** *
 167:Generated_Source\PSoC5/PWM2_PM.c **** * Parameters:
 168:Generated_Source\PSoC5/PWM2_PM.c **** *  None
 169:Generated_Source\PSoC5/PWM2_PM.c **** *
 170:Generated_Source\PSoC5/PWM2_PM.c **** * Return:
 171:Generated_Source\PSoC5/PWM2_PM.c **** *  None
 172:Generated_Source\PSoC5/PWM2_PM.c **** *
 173:Generated_Source\PSoC5/PWM2_PM.c **** * Global variables:
 174:Generated_Source\PSoC5/PWM2_PM.c **** *  PWM2_backup.pwmEnable:  Is used to restore the enable state of
 175:Generated_Source\PSoC5/PWM2_PM.c **** *  block on wakeup from sleep mode.
 176:Generated_Source\PSoC5/PWM2_PM.c **** *
 177:Generated_Source\PSoC5/PWM2_PM.c **** *******************************************************************************/
 178:Generated_Source\PSoC5/PWM2_PM.c **** void PWM2_Wakeup(void) 
 179:Generated_Source\PSoC5/PWM2_PM.c **** {
 149              		.loc 1 179 0
 150              		.cfi_startproc
 151              		@ args = 0, pretend = 0, frame = 0
 152              		@ frame_needed = 0, uses_anonymous_args = 0
 153 0000 08B5     		push	{r3, lr}
 154              		.cfi_def_cfa_offset 8
 155              		.cfi_offset 3, -8
 156              		.cfi_offset 14, -4
 180:Generated_Source\PSoC5/PWM2_PM.c ****      /* Restore registers values */
 181:Generated_Source\PSoC5/PWM2_PM.c ****     PWM2_RestoreConfig();
 157              		.loc 1 181 0
 158 0002 FFF7FEFF 		bl	PWM2_RestoreConfig
 159              	.LVL8:
 182:Generated_Source\PSoC5/PWM2_PM.c **** 
 183:Generated_Source\PSoC5/PWM2_PM.c ****     if(PWM2_backup.PWMEnableState != 0u)
ARM GAS  C:\Users\tkam627\AppData\Local\Temp\ccJ5TRDi.s 			page 7


 160              		.loc 1 183 0
 161 0006 034B     		ldr	r3, .L18
 162 0008 1B78     		ldrb	r3, [r3]	@ zero_extendqisi2
 163 000a 0BB1     		cbz	r3, .L15
 184:Generated_Source\PSoC5/PWM2_PM.c ****     {
 185:Generated_Source\PSoC5/PWM2_PM.c ****         /* Enable component's operation */
 186:Generated_Source\PSoC5/PWM2_PM.c ****         PWM2_Enable();
 164              		.loc 1 186 0
 165 000c FFF7FEFF 		bl	PWM2_Enable
 166              	.LVL9:
 167              	.L15:
 168 0010 08BD     		pop	{r3, pc}
 169              	.L19:
 170 0012 00BF     		.align	2
 171              	.L18:
 172 0014 00000000 		.word	.LANCHOR0
 173              		.cfi_endproc
 174              	.LFE3:
 175              		.size	PWM2_Wakeup, .-PWM2_Wakeup
 176              		.bss
 177              		.align	2
 178              		.set	.LANCHOR0,. + 0
 179              		.type	PWM2_backup, %object
 180              		.size	PWM2_backup, 4
 181              	PWM2_backup:
 182 0000 00000000 		.space	4
 183              		.text
 184              	.Letext0:
 185              		.file 2 "Generated_Source\\PSoC5\\cytypes.h"
 186              		.file 3 "Generated_Source\\PSoC5\\PWM2.h"