ARM GAS  C:\Users\tkam627\AppData\Local\Temp\ccTcM7WQ.s 			page 1


   1              		.syntax unified
   2              		.cpu cortex-m3
   3              		.fpu softvfp
   4              		.eabi_attribute 20, 1
   5              		.eabi_attribute 21, 1
   6              		.eabi_attribute 23, 3
   7              		.eabi_attribute 24, 1
   8              		.eabi_attribute 25, 1
   9              		.eabi_attribute 26, 1
  10              		.eabi_attribute 30, 1
  11              		.eabi_attribute 34, 1
  12              		.eabi_attribute 18, 4
  13              		.thumb
  14              		.syntax unified
  15              		.file	"PWM3.c"
  16              		.text
  17              	.Ltext0:
  18              		.cfi_sections	.debug_frame
  19              		.section	.text.PWM3_Enable,"ax",%progbits
  20              		.align	2
  21              		.global	PWM3_Enable
  22              		.thumb
  23              		.thumb_func
  24              		.type	PWM3_Enable, %function
  25              	PWM3_Enable:
  26              	.LFB2:
  27              		.file 1 "Generated_Source\\PSoC5\\PWM3.c"
   1:Generated_Source\PSoC5/PWM3.c **** /*******************************************************************************
   2:Generated_Source\PSoC5/PWM3.c **** * File Name: PWM3.c
   3:Generated_Source\PSoC5/PWM3.c **** * Version 3.30
   4:Generated_Source\PSoC5/PWM3.c **** *
   5:Generated_Source\PSoC5/PWM3.c **** * Description:
   6:Generated_Source\PSoC5/PWM3.c **** *  The PWM User Module consist of an 8 or 16-bit counter with two 8 or 16-bit
   7:Generated_Source\PSoC5/PWM3.c **** *  comparitors. Each instance of this user module is capable of generating
   8:Generated_Source\PSoC5/PWM3.c **** *  two PWM outputs with the same period. The pulse width is selectable between
   9:Generated_Source\PSoC5/PWM3.c **** *  1 and 255/65535. The period is selectable between 2 and 255/65536 clocks.
  10:Generated_Source\PSoC5/PWM3.c **** *  The compare value output may be configured to be active when the present
  11:Generated_Source\PSoC5/PWM3.c **** *  counter is less than or less than/equal to the compare value.
  12:Generated_Source\PSoC5/PWM3.c **** *  A terminal count output is also provided. It generates a pulse one clock
  13:Generated_Source\PSoC5/PWM3.c **** *  width wide when the counter is equal to zero.
  14:Generated_Source\PSoC5/PWM3.c **** *
  15:Generated_Source\PSoC5/PWM3.c **** * Note:
  16:Generated_Source\PSoC5/PWM3.c **** *
  17:Generated_Source\PSoC5/PWM3.c **** *******************************************************************************
  18:Generated_Source\PSoC5/PWM3.c **** * Copyright 2008-2014, Cypress Semiconductor Corporation.  All rights reserved.
  19:Generated_Source\PSoC5/PWM3.c **** * You may use this file only in accordance with the license, terms, conditions,
  20:Generated_Source\PSoC5/PWM3.c **** * disclaimers, and limitations in the end user license agreement accompanying
  21:Generated_Source\PSoC5/PWM3.c **** * the software package with which this file was provided.
  22:Generated_Source\PSoC5/PWM3.c **** ********************************************************************************/
  23:Generated_Source\PSoC5/PWM3.c **** 
  24:Generated_Source\PSoC5/PWM3.c **** #include "PWM3.h"
  25:Generated_Source\PSoC5/PWM3.c **** 
  26:Generated_Source\PSoC5/PWM3.c **** /* Error message for removed <resource> through optimization */
  27:Generated_Source\PSoC5/PWM3.c **** #ifdef PWM3_PWMUDB_genblk1_ctrlreg__REMOVED
  28:Generated_Source\PSoC5/PWM3.c ****     #error PWM_v3_30 detected with a constant 0 for the enable or \
  29:Generated_Source\PSoC5/PWM3.c ****          constant 1 for reset. This will prevent the component from operating.
  30:Generated_Source\PSoC5/PWM3.c **** #endif /* PWM3_PWMUDB_genblk1_ctrlreg__REMOVED */
ARM GAS  C:\Users\tkam627\AppData\Local\Temp\ccTcM7WQ.s 			page 2


  31:Generated_Source\PSoC5/PWM3.c **** 
  32:Generated_Source\PSoC5/PWM3.c **** uint8 PWM3_initVar = 0u;
  33:Generated_Source\PSoC5/PWM3.c **** 
  34:Generated_Source\PSoC5/PWM3.c **** 
  35:Generated_Source\PSoC5/PWM3.c **** /*******************************************************************************
  36:Generated_Source\PSoC5/PWM3.c **** * Function Name: PWM3_Start
  37:Generated_Source\PSoC5/PWM3.c **** ********************************************************************************
  38:Generated_Source\PSoC5/PWM3.c **** *
  39:Generated_Source\PSoC5/PWM3.c **** * Summary:
  40:Generated_Source\PSoC5/PWM3.c **** *  The start function initializes the pwm with the default values, the
  41:Generated_Source\PSoC5/PWM3.c **** *  enables the counter to begin counting.  It does not enable interrupts,
  42:Generated_Source\PSoC5/PWM3.c **** *  the EnableInt command should be called if interrupt generation is required.
  43:Generated_Source\PSoC5/PWM3.c **** *
  44:Generated_Source\PSoC5/PWM3.c **** * Parameters:
  45:Generated_Source\PSoC5/PWM3.c **** *  None
  46:Generated_Source\PSoC5/PWM3.c **** *
  47:Generated_Source\PSoC5/PWM3.c **** * Return:
  48:Generated_Source\PSoC5/PWM3.c **** *  None
  49:Generated_Source\PSoC5/PWM3.c **** *
  50:Generated_Source\PSoC5/PWM3.c **** * Global variables:
  51:Generated_Source\PSoC5/PWM3.c **** *  PWM3_initVar: Is modified when this function is called for the
  52:Generated_Source\PSoC5/PWM3.c **** *   first time. Is used to ensure that initialization happens only once.
  53:Generated_Source\PSoC5/PWM3.c **** *
  54:Generated_Source\PSoC5/PWM3.c **** *******************************************************************************/
  55:Generated_Source\PSoC5/PWM3.c **** void PWM3_Start(void) 
  56:Generated_Source\PSoC5/PWM3.c **** {
  57:Generated_Source\PSoC5/PWM3.c ****     /* If not Initialized then initialize all required hardware and software */
  58:Generated_Source\PSoC5/PWM3.c ****     if(PWM3_initVar == 0u)
  59:Generated_Source\PSoC5/PWM3.c ****     {
  60:Generated_Source\PSoC5/PWM3.c ****         PWM3_Init();
  61:Generated_Source\PSoC5/PWM3.c ****         PWM3_initVar = 1u;
  62:Generated_Source\PSoC5/PWM3.c ****     }
  63:Generated_Source\PSoC5/PWM3.c ****     PWM3_Enable();
  64:Generated_Source\PSoC5/PWM3.c **** 
  65:Generated_Source\PSoC5/PWM3.c **** }
  66:Generated_Source\PSoC5/PWM3.c **** 
  67:Generated_Source\PSoC5/PWM3.c **** 
  68:Generated_Source\PSoC5/PWM3.c **** /*******************************************************************************
  69:Generated_Source\PSoC5/PWM3.c **** * Function Name: PWM3_Init
  70:Generated_Source\PSoC5/PWM3.c **** ********************************************************************************
  71:Generated_Source\PSoC5/PWM3.c **** *
  72:Generated_Source\PSoC5/PWM3.c **** * Summary:
  73:Generated_Source\PSoC5/PWM3.c **** *  Initialize component's parameters to the parameters set by user in the
  74:Generated_Source\PSoC5/PWM3.c **** *  customizer of the component placed onto schematic. Usually called in
  75:Generated_Source\PSoC5/PWM3.c **** *  PWM3_Start().
  76:Generated_Source\PSoC5/PWM3.c **** *
  77:Generated_Source\PSoC5/PWM3.c **** * Parameters:
  78:Generated_Source\PSoC5/PWM3.c **** *  None
  79:Generated_Source\PSoC5/PWM3.c **** *
  80:Generated_Source\PSoC5/PWM3.c **** * Return:
  81:Generated_Source\PSoC5/PWM3.c **** *  None
  82:Generated_Source\PSoC5/PWM3.c **** *
  83:Generated_Source\PSoC5/PWM3.c **** *******************************************************************************/
  84:Generated_Source\PSoC5/PWM3.c **** void PWM3_Init(void) 
  85:Generated_Source\PSoC5/PWM3.c **** {
  86:Generated_Source\PSoC5/PWM3.c ****     #if (PWM3_UsingFixedFunction || PWM3_UseControl)
  87:Generated_Source\PSoC5/PWM3.c ****         uint8 ctrl;
ARM GAS  C:\Users\tkam627\AppData\Local\Temp\ccTcM7WQ.s 			page 3


  88:Generated_Source\PSoC5/PWM3.c ****     #endif /* (PWM3_UsingFixedFunction || PWM3_UseControl) */
  89:Generated_Source\PSoC5/PWM3.c **** 
  90:Generated_Source\PSoC5/PWM3.c ****     #if(!PWM3_UsingFixedFunction)
  91:Generated_Source\PSoC5/PWM3.c ****         #if(PWM3_UseStatus)
  92:Generated_Source\PSoC5/PWM3.c ****             /* Interrupt State Backup for Critical Region*/
  93:Generated_Source\PSoC5/PWM3.c ****             uint8 PWM3_interruptState;
  94:Generated_Source\PSoC5/PWM3.c ****         #endif /* (PWM3_UseStatus) */
  95:Generated_Source\PSoC5/PWM3.c ****     #endif /* (!PWM3_UsingFixedFunction) */
  96:Generated_Source\PSoC5/PWM3.c **** 
  97:Generated_Source\PSoC5/PWM3.c ****     #if (PWM3_UsingFixedFunction)
  98:Generated_Source\PSoC5/PWM3.c ****         /* You are allowed to write the compare value (FF only) */
  99:Generated_Source\PSoC5/PWM3.c ****         PWM3_CONTROL |= PWM3_CFG0_MODE;
 100:Generated_Source\PSoC5/PWM3.c ****         #if (PWM3_DeadBand2_4)
 101:Generated_Source\PSoC5/PWM3.c ****             PWM3_CONTROL |= PWM3_CFG0_DB;
 102:Generated_Source\PSoC5/PWM3.c ****         #endif /* (PWM3_DeadBand2_4) */
 103:Generated_Source\PSoC5/PWM3.c **** 
 104:Generated_Source\PSoC5/PWM3.c ****         ctrl = PWM3_CONTROL3 & ((uint8 )(~PWM3_CTRL_CMPMODE1_MASK));
 105:Generated_Source\PSoC5/PWM3.c ****         PWM3_CONTROL3 = ctrl | PWM3_DEFAULT_COMPARE1_MODE;
 106:Generated_Source\PSoC5/PWM3.c **** 
 107:Generated_Source\PSoC5/PWM3.c ****          /* Clear and Set SYNCTC and SYNCCMP bits of RT1 register */
 108:Generated_Source\PSoC5/PWM3.c ****         PWM3_RT1 &= ((uint8)(~PWM3_RT1_MASK));
 109:Generated_Source\PSoC5/PWM3.c ****         PWM3_RT1 |= PWM3_SYNC;
 110:Generated_Source\PSoC5/PWM3.c **** 
 111:Generated_Source\PSoC5/PWM3.c ****         /*Enable DSI Sync all all inputs of the PWM*/
 112:Generated_Source\PSoC5/PWM3.c ****         PWM3_RT1 &= ((uint8)(~PWM3_SYNCDSI_MASK));
 113:Generated_Source\PSoC5/PWM3.c ****         PWM3_RT1 |= PWM3_SYNCDSI_EN;
 114:Generated_Source\PSoC5/PWM3.c **** 
 115:Generated_Source\PSoC5/PWM3.c ****     #elif (PWM3_UseControl)
 116:Generated_Source\PSoC5/PWM3.c ****         /* Set the default compare mode defined in the parameter */
 117:Generated_Source\PSoC5/PWM3.c ****         ctrl = PWM3_CONTROL & ((uint8)(~PWM3_CTRL_CMPMODE2_MASK)) &
 118:Generated_Source\PSoC5/PWM3.c ****                 ((uint8)(~PWM3_CTRL_CMPMODE1_MASK));
 119:Generated_Source\PSoC5/PWM3.c ****         PWM3_CONTROL = ctrl | PWM3_DEFAULT_COMPARE2_MODE |
 120:Generated_Source\PSoC5/PWM3.c ****                                    PWM3_DEFAULT_COMPARE1_MODE;
 121:Generated_Source\PSoC5/PWM3.c ****     #endif /* (PWM3_UsingFixedFunction) */
 122:Generated_Source\PSoC5/PWM3.c **** 
 123:Generated_Source\PSoC5/PWM3.c ****     #if (!PWM3_UsingFixedFunction)
 124:Generated_Source\PSoC5/PWM3.c ****         #if (PWM3_Resolution == 8)
 125:Generated_Source\PSoC5/PWM3.c ****             /* Set FIFO 0 to 1 byte register for period*/
 126:Generated_Source\PSoC5/PWM3.c ****             PWM3_AUX_CONTROLDP0 |= (PWM3_AUX_CTRL_FIFO0_CLR);
 127:Generated_Source\PSoC5/PWM3.c ****         #else /* (PWM3_Resolution == 16)*/
 128:Generated_Source\PSoC5/PWM3.c ****             /* Set FIFO 0 to 1 byte register for period */
 129:Generated_Source\PSoC5/PWM3.c ****             PWM3_AUX_CONTROLDP0 |= (PWM3_AUX_CTRL_FIFO0_CLR);
 130:Generated_Source\PSoC5/PWM3.c ****             PWM3_AUX_CONTROLDP1 |= (PWM3_AUX_CTRL_FIFO0_CLR);
 131:Generated_Source\PSoC5/PWM3.c ****         #endif /* (PWM3_Resolution == 8) */
 132:Generated_Source\PSoC5/PWM3.c **** 
 133:Generated_Source\PSoC5/PWM3.c ****         PWM3_WriteCounter(PWM3_INIT_PERIOD_VALUE);
 134:Generated_Source\PSoC5/PWM3.c ****     #endif /* (!PWM3_UsingFixedFunction) */
 135:Generated_Source\PSoC5/PWM3.c **** 
 136:Generated_Source\PSoC5/PWM3.c ****     PWM3_WritePeriod(PWM3_INIT_PERIOD_VALUE);
 137:Generated_Source\PSoC5/PWM3.c **** 
 138:Generated_Source\PSoC5/PWM3.c ****         #if (PWM3_UseOneCompareMode)
 139:Generated_Source\PSoC5/PWM3.c ****             PWM3_WriteCompare(PWM3_INIT_COMPARE_VALUE1);
 140:Generated_Source\PSoC5/PWM3.c ****         #else
 141:Generated_Source\PSoC5/PWM3.c ****             PWM3_WriteCompare1(PWM3_INIT_COMPARE_VALUE1);
 142:Generated_Source\PSoC5/PWM3.c ****             PWM3_WriteCompare2(PWM3_INIT_COMPARE_VALUE2);
 143:Generated_Source\PSoC5/PWM3.c ****         #endif /* (PWM3_UseOneCompareMode) */
 144:Generated_Source\PSoC5/PWM3.c **** 
ARM GAS  C:\Users\tkam627\AppData\Local\Temp\ccTcM7WQ.s 			page 4


 145:Generated_Source\PSoC5/PWM3.c ****         #if (PWM3_KillModeMinTime)
 146:Generated_Source\PSoC5/PWM3.c ****             PWM3_WriteKillTime(PWM3_MinimumKillTime);
 147:Generated_Source\PSoC5/PWM3.c ****         #endif /* (PWM3_KillModeMinTime) */
 148:Generated_Source\PSoC5/PWM3.c **** 
 149:Generated_Source\PSoC5/PWM3.c ****         #if (PWM3_DeadBandUsed)
 150:Generated_Source\PSoC5/PWM3.c ****             PWM3_WriteDeadTime(PWM3_INIT_DEAD_TIME);
 151:Generated_Source\PSoC5/PWM3.c ****         #endif /* (PWM3_DeadBandUsed) */
 152:Generated_Source\PSoC5/PWM3.c **** 
 153:Generated_Source\PSoC5/PWM3.c ****     #if (PWM3_UseStatus || PWM3_UsingFixedFunction)
 154:Generated_Source\PSoC5/PWM3.c ****         PWM3_SetInterruptMode(PWM3_INIT_INTERRUPTS_MODE);
 155:Generated_Source\PSoC5/PWM3.c ****     #endif /* (PWM3_UseStatus || PWM3_UsingFixedFunction) */
 156:Generated_Source\PSoC5/PWM3.c **** 
 157:Generated_Source\PSoC5/PWM3.c ****     #if (PWM3_UsingFixedFunction)
 158:Generated_Source\PSoC5/PWM3.c ****         /* Globally Enable the Fixed Function Block chosen */
 159:Generated_Source\PSoC5/PWM3.c ****         PWM3_GLOBAL_ENABLE |= PWM3_BLOCK_EN_MASK;
 160:Generated_Source\PSoC5/PWM3.c ****         /* Set the Interrupt source to come from the status register */
 161:Generated_Source\PSoC5/PWM3.c ****         PWM3_CONTROL2 |= PWM3_CTRL2_IRQ_SEL;
 162:Generated_Source\PSoC5/PWM3.c ****     #else
 163:Generated_Source\PSoC5/PWM3.c ****         #if(PWM3_UseStatus)
 164:Generated_Source\PSoC5/PWM3.c **** 
 165:Generated_Source\PSoC5/PWM3.c ****             /* CyEnterCriticalRegion and CyExitCriticalRegion are used to mark following region cri
 166:Generated_Source\PSoC5/PWM3.c ****             /* Enter Critical Region*/
 167:Generated_Source\PSoC5/PWM3.c ****             PWM3_interruptState = CyEnterCriticalSection();
 168:Generated_Source\PSoC5/PWM3.c ****             /* Use the interrupt output of the status register for IRQ output */
 169:Generated_Source\PSoC5/PWM3.c ****             PWM3_STATUS_AUX_CTRL |= PWM3_STATUS_ACTL_INT_EN_MASK;
 170:Generated_Source\PSoC5/PWM3.c **** 
 171:Generated_Source\PSoC5/PWM3.c ****              /* Exit Critical Region*/
 172:Generated_Source\PSoC5/PWM3.c ****             CyExitCriticalSection(PWM3_interruptState);
 173:Generated_Source\PSoC5/PWM3.c **** 
 174:Generated_Source\PSoC5/PWM3.c ****             /* Clear the FIFO to enable the PWM3_STATUS_FIFOFULL
 175:Generated_Source\PSoC5/PWM3.c ****                    bit to be set on FIFO full. */
 176:Generated_Source\PSoC5/PWM3.c ****             PWM3_ClearFIFO();
 177:Generated_Source\PSoC5/PWM3.c ****         #endif /* (PWM3_UseStatus) */
 178:Generated_Source\PSoC5/PWM3.c ****     #endif /* (PWM3_UsingFixedFunction) */
 179:Generated_Source\PSoC5/PWM3.c **** }
 180:Generated_Source\PSoC5/PWM3.c **** 
 181:Generated_Source\PSoC5/PWM3.c **** 
 182:Generated_Source\PSoC5/PWM3.c **** /*******************************************************************************
 183:Generated_Source\PSoC5/PWM3.c **** * Function Name: PWM3_Enable
 184:Generated_Source\PSoC5/PWM3.c **** ********************************************************************************
 185:Generated_Source\PSoC5/PWM3.c **** *
 186:Generated_Source\PSoC5/PWM3.c **** * Summary:
 187:Generated_Source\PSoC5/PWM3.c **** *  Enables the PWM block operation
 188:Generated_Source\PSoC5/PWM3.c **** *
 189:Generated_Source\PSoC5/PWM3.c **** * Parameters:
 190:Generated_Source\PSoC5/PWM3.c **** *  None
 191:Generated_Source\PSoC5/PWM3.c **** *
 192:Generated_Source\PSoC5/PWM3.c **** * Return:
 193:Generated_Source\PSoC5/PWM3.c **** *  None
 194:Generated_Source\PSoC5/PWM3.c **** *
 195:Generated_Source\PSoC5/PWM3.c **** * Side Effects:
 196:Generated_Source\PSoC5/PWM3.c **** *  This works only if software enable mode is chosen
 197:Generated_Source\PSoC5/PWM3.c **** *
 198:Generated_Source\PSoC5/PWM3.c **** *******************************************************************************/
 199:Generated_Source\PSoC5/PWM3.c **** void PWM3_Enable(void) 
 200:Generated_Source\PSoC5/PWM3.c **** {
  28              		.loc 1 200 0
ARM GAS  C:\Users\tkam627\AppData\Local\Temp\ccTcM7WQ.s 			page 5


  29              		.cfi_startproc
  30              		@ args = 0, pretend = 0, frame = 0
  31              		@ frame_needed = 0, uses_anonymous_args = 0
  32              		@ link register save eliminated.
 201:Generated_Source\PSoC5/PWM3.c ****     /* Globally Enable the Fixed Function Block chosen */
 202:Generated_Source\PSoC5/PWM3.c ****     #if (PWM3_UsingFixedFunction)
 203:Generated_Source\PSoC5/PWM3.c ****         PWM3_GLOBAL_ENABLE |= PWM3_BLOCK_EN_MASK;
 204:Generated_Source\PSoC5/PWM3.c ****         PWM3_GLOBAL_STBY_ENABLE |= PWM3_BLOCK_STBY_EN_MASK;
 205:Generated_Source\PSoC5/PWM3.c ****     #endif /* (PWM3_UsingFixedFunction) */
 206:Generated_Source\PSoC5/PWM3.c **** 
 207:Generated_Source\PSoC5/PWM3.c ****     /* Enable the PWM from the control register  */
 208:Generated_Source\PSoC5/PWM3.c ****     #if (PWM3_UseControl || PWM3_UsingFixedFunction)
 209:Generated_Source\PSoC5/PWM3.c ****         PWM3_CONTROL |= PWM3_CTRL_ENABLE;
  33              		.loc 1 209 0
  34 0000 024A     		ldr	r2, .L2
  35 0002 1378     		ldrb	r3, [r2]	@ zero_extendqisi2
  36 0004 43F08003 		orr	r3, r3, #128
  37 0008 1370     		strb	r3, [r2]
  38 000a 7047     		bx	lr
  39              	.L3:
  40              		.align	2
  41              	.L2:
  42 000c 74650040 		.word	1073767796
  43              		.cfi_endproc
  44              	.LFE2:
  45              		.size	PWM3_Enable, .-PWM3_Enable
  46              		.section	.text.PWM3_Stop,"ax",%progbits
  47              		.align	2
  48              		.global	PWM3_Stop
  49              		.thumb
  50              		.thumb_func
  51              		.type	PWM3_Stop, %function
  52              	PWM3_Stop:
  53              	.LFB3:
 210:Generated_Source\PSoC5/PWM3.c ****     #endif /* (PWM3_UseControl || PWM3_UsingFixedFunction) */
 211:Generated_Source\PSoC5/PWM3.c **** }
 212:Generated_Source\PSoC5/PWM3.c **** 
 213:Generated_Source\PSoC5/PWM3.c **** 
 214:Generated_Source\PSoC5/PWM3.c **** /*******************************************************************************
 215:Generated_Source\PSoC5/PWM3.c **** * Function Name: PWM3_Stop
 216:Generated_Source\PSoC5/PWM3.c **** ********************************************************************************
 217:Generated_Source\PSoC5/PWM3.c **** *
 218:Generated_Source\PSoC5/PWM3.c **** * Summary:
 219:Generated_Source\PSoC5/PWM3.c **** *  The stop function halts the PWM, but does not change any modes or disable
 220:Generated_Source\PSoC5/PWM3.c **** *  interrupts.
 221:Generated_Source\PSoC5/PWM3.c **** *
 222:Generated_Source\PSoC5/PWM3.c **** * Parameters:
 223:Generated_Source\PSoC5/PWM3.c **** *  None
 224:Generated_Source\PSoC5/PWM3.c **** *
 225:Generated_Source\PSoC5/PWM3.c **** * Return:
 226:Generated_Source\PSoC5/PWM3.c **** *  None
 227:Generated_Source\PSoC5/PWM3.c **** *
 228:Generated_Source\PSoC5/PWM3.c **** * Side Effects:
 229:Generated_Source\PSoC5/PWM3.c **** *  If the Enable mode is set to Hardware only then this function
 230:Generated_Source\PSoC5/PWM3.c **** *  has no effect on the operation of the PWM
 231:Generated_Source\PSoC5/PWM3.c **** *
 232:Generated_Source\PSoC5/PWM3.c **** *******************************************************************************/
ARM GAS  C:\Users\tkam627\AppData\Local\Temp\ccTcM7WQ.s 			page 6


 233:Generated_Source\PSoC5/PWM3.c **** void PWM3_Stop(void) 
 234:Generated_Source\PSoC5/PWM3.c **** {
  54              		.loc 1 234 0
  55              		.cfi_startproc
  56              		@ args = 0, pretend = 0, frame = 0
  57              		@ frame_needed = 0, uses_anonymous_args = 0
  58              		@ link register save eliminated.
 235:Generated_Source\PSoC5/PWM3.c ****     #if (PWM3_UseControl || PWM3_UsingFixedFunction)
 236:Generated_Source\PSoC5/PWM3.c ****         PWM3_CONTROL &= ((uint8)(~PWM3_CTRL_ENABLE));
  59              		.loc 1 236 0
  60 0000 024A     		ldr	r2, .L5
  61 0002 1378     		ldrb	r3, [r2]	@ zero_extendqisi2
  62 0004 03F07F03 		and	r3, r3, #127
  63 0008 1370     		strb	r3, [r2]
  64 000a 7047     		bx	lr
  65              	.L6:
  66              		.align	2
  67              	.L5:
  68 000c 74650040 		.word	1073767796
  69              		.cfi_endproc
  70              	.LFE3:
  71              		.size	PWM3_Stop, .-PWM3_Stop
  72              		.section	.text.PWM3_WriteCounter,"ax",%progbits
  73              		.align	2
  74              		.global	PWM3_WriteCounter
  75              		.thumb
  76              		.thumb_func
  77              		.type	PWM3_WriteCounter, %function
  78              	PWM3_WriteCounter:
  79              	.LFB4:
 237:Generated_Source\PSoC5/PWM3.c ****     #endif /* (PWM3_UseControl || PWM3_UsingFixedFunction) */
 238:Generated_Source\PSoC5/PWM3.c **** 
 239:Generated_Source\PSoC5/PWM3.c ****     /* Globally disable the Fixed Function Block chosen */
 240:Generated_Source\PSoC5/PWM3.c ****     #if (PWM3_UsingFixedFunction)
 241:Generated_Source\PSoC5/PWM3.c ****         PWM3_GLOBAL_ENABLE &= ((uint8)(~PWM3_BLOCK_EN_MASK));
 242:Generated_Source\PSoC5/PWM3.c ****         PWM3_GLOBAL_STBY_ENABLE &= ((uint8)(~PWM3_BLOCK_STBY_EN_MASK));
 243:Generated_Source\PSoC5/PWM3.c ****     #endif /* (PWM3_UsingFixedFunction) */
 244:Generated_Source\PSoC5/PWM3.c **** }
 245:Generated_Source\PSoC5/PWM3.c **** 
 246:Generated_Source\PSoC5/PWM3.c **** #if (PWM3_UseOneCompareMode)
 247:Generated_Source\PSoC5/PWM3.c ****     #if (PWM3_CompareMode1SW)
 248:Generated_Source\PSoC5/PWM3.c **** 
 249:Generated_Source\PSoC5/PWM3.c **** 
 250:Generated_Source\PSoC5/PWM3.c ****         /*******************************************************************************
 251:Generated_Source\PSoC5/PWM3.c ****         * Function Name: PWM3_SetCompareMode
 252:Generated_Source\PSoC5/PWM3.c ****         ********************************************************************************
 253:Generated_Source\PSoC5/PWM3.c ****         *
 254:Generated_Source\PSoC5/PWM3.c ****         * Summary:
 255:Generated_Source\PSoC5/PWM3.c ****         *  This function writes the Compare Mode for the pwm output when in Dither mode,
 256:Generated_Source\PSoC5/PWM3.c ****         *  Center Align Mode or One Output Mode.
 257:Generated_Source\PSoC5/PWM3.c ****         *
 258:Generated_Source\PSoC5/PWM3.c ****         * Parameters:
 259:Generated_Source\PSoC5/PWM3.c ****         *  comparemode:  The new compare mode for the PWM output. Use the compare types
 260:Generated_Source\PSoC5/PWM3.c ****         *                defined in the H file as input arguments.
 261:Generated_Source\PSoC5/PWM3.c ****         *
 262:Generated_Source\PSoC5/PWM3.c ****         * Return:
 263:Generated_Source\PSoC5/PWM3.c ****         *  None
ARM GAS  C:\Users\tkam627\AppData\Local\Temp\ccTcM7WQ.s 			page 7


 264:Generated_Source\PSoC5/PWM3.c ****         *
 265:Generated_Source\PSoC5/PWM3.c ****         *******************************************************************************/
 266:Generated_Source\PSoC5/PWM3.c ****         void PWM3_SetCompareMode(uint8 comparemode) 
 267:Generated_Source\PSoC5/PWM3.c ****         {
 268:Generated_Source\PSoC5/PWM3.c ****             #if(PWM3_UsingFixedFunction)
 269:Generated_Source\PSoC5/PWM3.c **** 
 270:Generated_Source\PSoC5/PWM3.c ****                 #if(0 != PWM3_CTRL_CMPMODE1_SHIFT)
 271:Generated_Source\PSoC5/PWM3.c ****                     uint8 comparemodemasked = ((uint8)((uint8)comparemode << PWM3_CTRL_CMPMODE1_SHI
 272:Generated_Source\PSoC5/PWM3.c ****                 #else
 273:Generated_Source\PSoC5/PWM3.c ****                     uint8 comparemodemasked = comparemode;
 274:Generated_Source\PSoC5/PWM3.c ****                 #endif /* (0 != PWM3_CTRL_CMPMODE1_SHIFT) */
 275:Generated_Source\PSoC5/PWM3.c **** 
 276:Generated_Source\PSoC5/PWM3.c ****                 PWM3_CONTROL3 &= ((uint8)(~PWM3_CTRL_CMPMODE1_MASK)); /*Clear Existing Data */
 277:Generated_Source\PSoC5/PWM3.c ****                 PWM3_CONTROL3 |= comparemodemasked;
 278:Generated_Source\PSoC5/PWM3.c **** 
 279:Generated_Source\PSoC5/PWM3.c ****             #elif (PWM3_UseControl)
 280:Generated_Source\PSoC5/PWM3.c **** 
 281:Generated_Source\PSoC5/PWM3.c ****                 #if(0 != PWM3_CTRL_CMPMODE1_SHIFT)
 282:Generated_Source\PSoC5/PWM3.c ****                     uint8 comparemode1masked = ((uint8)((uint8)comparemode << PWM3_CTRL_CMPMODE1_SH
 283:Generated_Source\PSoC5/PWM3.c ****                                                 PWM3_CTRL_CMPMODE1_MASK;
 284:Generated_Source\PSoC5/PWM3.c ****                 #else
 285:Generated_Source\PSoC5/PWM3.c ****                     uint8 comparemode1masked = comparemode & PWM3_CTRL_CMPMODE1_MASK;
 286:Generated_Source\PSoC5/PWM3.c ****                 #endif /* (0 != PWM3_CTRL_CMPMODE1_SHIFT) */
 287:Generated_Source\PSoC5/PWM3.c **** 
 288:Generated_Source\PSoC5/PWM3.c ****                 #if(0 != PWM3_CTRL_CMPMODE2_SHIFT)
 289:Generated_Source\PSoC5/PWM3.c ****                     uint8 comparemode2masked = ((uint8)((uint8)comparemode << PWM3_CTRL_CMPMODE2_SH
 290:Generated_Source\PSoC5/PWM3.c ****                                                PWM3_CTRL_CMPMODE2_MASK;
 291:Generated_Source\PSoC5/PWM3.c ****                 #else
 292:Generated_Source\PSoC5/PWM3.c ****                     uint8 comparemode2masked = comparemode & PWM3_CTRL_CMPMODE2_MASK;
 293:Generated_Source\PSoC5/PWM3.c ****                 #endif /* (0 != PWM3_CTRL_CMPMODE2_SHIFT) */
 294:Generated_Source\PSoC5/PWM3.c **** 
 295:Generated_Source\PSoC5/PWM3.c ****                 /*Clear existing mode */
 296:Generated_Source\PSoC5/PWM3.c ****                 PWM3_CONTROL &= ((uint8)(~(PWM3_CTRL_CMPMODE1_MASK |
 297:Generated_Source\PSoC5/PWM3.c ****                                             PWM3_CTRL_CMPMODE2_MASK)));
 298:Generated_Source\PSoC5/PWM3.c ****                 PWM3_CONTROL |= (comparemode1masked | comparemode2masked);
 299:Generated_Source\PSoC5/PWM3.c **** 
 300:Generated_Source\PSoC5/PWM3.c ****             #else
 301:Generated_Source\PSoC5/PWM3.c ****                 uint8 temp = comparemode;
 302:Generated_Source\PSoC5/PWM3.c ****             #endif /* (PWM3_UsingFixedFunction) */
 303:Generated_Source\PSoC5/PWM3.c ****         }
 304:Generated_Source\PSoC5/PWM3.c ****     #endif /* PWM3_CompareMode1SW */
 305:Generated_Source\PSoC5/PWM3.c **** 
 306:Generated_Source\PSoC5/PWM3.c **** #else /* UseOneCompareMode */
 307:Generated_Source\PSoC5/PWM3.c **** 
 308:Generated_Source\PSoC5/PWM3.c ****     #if (PWM3_CompareMode1SW)
 309:Generated_Source\PSoC5/PWM3.c **** 
 310:Generated_Source\PSoC5/PWM3.c **** 
 311:Generated_Source\PSoC5/PWM3.c ****         /*******************************************************************************
 312:Generated_Source\PSoC5/PWM3.c ****         * Function Name: PWM3_SetCompareMode1
 313:Generated_Source\PSoC5/PWM3.c ****         ********************************************************************************
 314:Generated_Source\PSoC5/PWM3.c ****         *
 315:Generated_Source\PSoC5/PWM3.c ****         * Summary:
 316:Generated_Source\PSoC5/PWM3.c ****         *  This function writes the Compare Mode for the pwm or pwm1 output
 317:Generated_Source\PSoC5/PWM3.c ****         *
 318:Generated_Source\PSoC5/PWM3.c ****         * Parameters:
 319:Generated_Source\PSoC5/PWM3.c ****         *  comparemode:  The new compare mode for the PWM output. Use the compare types
 320:Generated_Source\PSoC5/PWM3.c ****         *                defined in the H file as input arguments.
ARM GAS  C:\Users\tkam627\AppData\Local\Temp\ccTcM7WQ.s 			page 8


 321:Generated_Source\PSoC5/PWM3.c ****         *
 322:Generated_Source\PSoC5/PWM3.c ****         * Return:
 323:Generated_Source\PSoC5/PWM3.c ****         *  None
 324:Generated_Source\PSoC5/PWM3.c ****         *
 325:Generated_Source\PSoC5/PWM3.c ****         *******************************************************************************/
 326:Generated_Source\PSoC5/PWM3.c ****         void PWM3_SetCompareMode1(uint8 comparemode) 
 327:Generated_Source\PSoC5/PWM3.c ****         {
 328:Generated_Source\PSoC5/PWM3.c ****             #if(0 != PWM3_CTRL_CMPMODE1_SHIFT)
 329:Generated_Source\PSoC5/PWM3.c ****                 uint8 comparemodemasked = ((uint8)((uint8)comparemode << PWM3_CTRL_CMPMODE1_SHIFT))
 330:Generated_Source\PSoC5/PWM3.c ****                                            PWM3_CTRL_CMPMODE1_MASK;
 331:Generated_Source\PSoC5/PWM3.c ****             #else
 332:Generated_Source\PSoC5/PWM3.c ****                 uint8 comparemodemasked = comparemode & PWM3_CTRL_CMPMODE1_MASK;
 333:Generated_Source\PSoC5/PWM3.c ****             #endif /* (0 != PWM3_CTRL_CMPMODE1_SHIFT) */
 334:Generated_Source\PSoC5/PWM3.c **** 
 335:Generated_Source\PSoC5/PWM3.c ****             #if (PWM3_UseControl)
 336:Generated_Source\PSoC5/PWM3.c ****                 PWM3_CONTROL &= ((uint8)(~PWM3_CTRL_CMPMODE1_MASK)); /*Clear existing mode */
 337:Generated_Source\PSoC5/PWM3.c ****                 PWM3_CONTROL |= comparemodemasked;
 338:Generated_Source\PSoC5/PWM3.c ****             #endif /* (PWM3_UseControl) */
 339:Generated_Source\PSoC5/PWM3.c ****         }
 340:Generated_Source\PSoC5/PWM3.c ****     #endif /* PWM3_CompareMode1SW */
 341:Generated_Source\PSoC5/PWM3.c **** 
 342:Generated_Source\PSoC5/PWM3.c **** #if (PWM3_CompareMode2SW)
 343:Generated_Source\PSoC5/PWM3.c **** 
 344:Generated_Source\PSoC5/PWM3.c **** 
 345:Generated_Source\PSoC5/PWM3.c ****     /*******************************************************************************
 346:Generated_Source\PSoC5/PWM3.c ****     * Function Name: PWM3_SetCompareMode2
 347:Generated_Source\PSoC5/PWM3.c ****     ********************************************************************************
 348:Generated_Source\PSoC5/PWM3.c ****     *
 349:Generated_Source\PSoC5/PWM3.c ****     * Summary:
 350:Generated_Source\PSoC5/PWM3.c ****     *  This function writes the Compare Mode for the pwm or pwm2 output
 351:Generated_Source\PSoC5/PWM3.c ****     *
 352:Generated_Source\PSoC5/PWM3.c ****     * Parameters:
 353:Generated_Source\PSoC5/PWM3.c ****     *  comparemode:  The new compare mode for the PWM output. Use the compare types
 354:Generated_Source\PSoC5/PWM3.c ****     *                defined in the H file as input arguments.
 355:Generated_Source\PSoC5/PWM3.c ****     *
 356:Generated_Source\PSoC5/PWM3.c ****     * Return:
 357:Generated_Source\PSoC5/PWM3.c ****     *  None
 358:Generated_Source\PSoC5/PWM3.c ****     *
 359:Generated_Source\PSoC5/PWM3.c ****     *******************************************************************************/
 360:Generated_Source\PSoC5/PWM3.c ****     void PWM3_SetCompareMode2(uint8 comparemode) 
 361:Generated_Source\PSoC5/PWM3.c ****     {
 362:Generated_Source\PSoC5/PWM3.c **** 
 363:Generated_Source\PSoC5/PWM3.c ****         #if(0 != PWM3_CTRL_CMPMODE2_SHIFT)
 364:Generated_Source\PSoC5/PWM3.c ****             uint8 comparemodemasked = ((uint8)((uint8)comparemode << PWM3_CTRL_CMPMODE2_SHIFT)) &
 365:Generated_Source\PSoC5/PWM3.c ****                                                  PWM3_CTRL_CMPMODE2_MASK;
 366:Generated_Source\PSoC5/PWM3.c ****         #else
 367:Generated_Source\PSoC5/PWM3.c ****             uint8 comparemodemasked = comparemode & PWM3_CTRL_CMPMODE2_MASK;
 368:Generated_Source\PSoC5/PWM3.c ****         #endif /* (0 != PWM3_CTRL_CMPMODE2_SHIFT) */
 369:Generated_Source\PSoC5/PWM3.c **** 
 370:Generated_Source\PSoC5/PWM3.c ****         #if (PWM3_UseControl)
 371:Generated_Source\PSoC5/PWM3.c ****             PWM3_CONTROL &= ((uint8)(~PWM3_CTRL_CMPMODE2_MASK)); /*Clear existing mode */
 372:Generated_Source\PSoC5/PWM3.c ****             PWM3_CONTROL |= comparemodemasked;
 373:Generated_Source\PSoC5/PWM3.c ****         #endif /* (PWM3_UseControl) */
 374:Generated_Source\PSoC5/PWM3.c ****     }
 375:Generated_Source\PSoC5/PWM3.c ****     #endif /*PWM3_CompareMode2SW */
 376:Generated_Source\PSoC5/PWM3.c **** 
 377:Generated_Source\PSoC5/PWM3.c **** #endif /* UseOneCompareMode */
ARM GAS  C:\Users\tkam627\AppData\Local\Temp\ccTcM7WQ.s 			page 9


 378:Generated_Source\PSoC5/PWM3.c **** 
 379:Generated_Source\PSoC5/PWM3.c **** 
 380:Generated_Source\PSoC5/PWM3.c **** #if (!PWM3_UsingFixedFunction)
 381:Generated_Source\PSoC5/PWM3.c **** 
 382:Generated_Source\PSoC5/PWM3.c **** 
 383:Generated_Source\PSoC5/PWM3.c ****     /*******************************************************************************
 384:Generated_Source\PSoC5/PWM3.c ****     * Function Name: PWM3_WriteCounter
 385:Generated_Source\PSoC5/PWM3.c ****     ********************************************************************************
 386:Generated_Source\PSoC5/PWM3.c ****     *
 387:Generated_Source\PSoC5/PWM3.c ****     * Summary:
 388:Generated_Source\PSoC5/PWM3.c ****     *  Writes a new counter value directly to the counter register. This will be
 389:Generated_Source\PSoC5/PWM3.c ****     *  implemented for that currently running period and only that period. This API
 390:Generated_Source\PSoC5/PWM3.c ****     *  is valid only for UDB implementation and not available for fixed function
 391:Generated_Source\PSoC5/PWM3.c ****     *  PWM implementation.
 392:Generated_Source\PSoC5/PWM3.c ****     *
 393:Generated_Source\PSoC5/PWM3.c ****     * Parameters:
 394:Generated_Source\PSoC5/PWM3.c ****     *  counter:  The period new period counter value.
 395:Generated_Source\PSoC5/PWM3.c ****     *
 396:Generated_Source\PSoC5/PWM3.c ****     * Return:
 397:Generated_Source\PSoC5/PWM3.c ****     *  None
 398:Generated_Source\PSoC5/PWM3.c ****     *
 399:Generated_Source\PSoC5/PWM3.c ****     * Side Effects:
 400:Generated_Source\PSoC5/PWM3.c ****     *  The PWM Period will be reloaded when a counter value will be a zero
 401:Generated_Source\PSoC5/PWM3.c ****     *
 402:Generated_Source\PSoC5/PWM3.c ****     *******************************************************************************/
 403:Generated_Source\PSoC5/PWM3.c ****     void PWM3_WriteCounter(uint8 counter) \
 404:Generated_Source\PSoC5/PWM3.c ****                                        
 405:Generated_Source\PSoC5/PWM3.c ****     {
  80              		.loc 1 405 0
  81              		.cfi_startproc
  82              		@ args = 0, pretend = 0, frame = 0
  83              		@ frame_needed = 0, uses_anonymous_args = 0
  84              		@ link register save eliminated.
  85              	.LVL0:
 406:Generated_Source\PSoC5/PWM3.c ****         CY_SET_REG8(PWM3_COUNTER_LSB_PTR, counter);
  86              		.loc 1 406 0
  87 0000 014B     		ldr	r3, .L8
  88 0002 1870     		strb	r0, [r3]
  89 0004 7047     		bx	lr
  90              	.L9:
  91 0006 00BF     		.align	2
  92              	.L8:
  93 0008 04650040 		.word	1073767684
  94              		.cfi_endproc
  95              	.LFE4:
  96              		.size	PWM3_WriteCounter, .-PWM3_WriteCounter
  97              		.section	.text.PWM3_ReadCounter,"ax",%progbits
  98              		.align	2
  99              		.global	PWM3_ReadCounter
 100              		.thumb
 101              		.thumb_func
 102              		.type	PWM3_ReadCounter, %function
 103              	PWM3_ReadCounter:
 104              	.LFB5:
 407:Generated_Source\PSoC5/PWM3.c ****     }
 408:Generated_Source\PSoC5/PWM3.c **** 
 409:Generated_Source\PSoC5/PWM3.c **** 
ARM GAS  C:\Users\tkam627\AppData\Local\Temp\ccTcM7WQ.s 			page 10


 410:Generated_Source\PSoC5/PWM3.c ****     /*******************************************************************************
 411:Generated_Source\PSoC5/PWM3.c ****     * Function Name: PWM3_ReadCounter
 412:Generated_Source\PSoC5/PWM3.c ****     ********************************************************************************
 413:Generated_Source\PSoC5/PWM3.c ****     *
 414:Generated_Source\PSoC5/PWM3.c ****     * Summary:
 415:Generated_Source\PSoC5/PWM3.c ****     *  This function returns the current value of the counter.  It doesn't matter
 416:Generated_Source\PSoC5/PWM3.c ****     *  if the counter is enabled or running.
 417:Generated_Source\PSoC5/PWM3.c ****     *
 418:Generated_Source\PSoC5/PWM3.c ****     * Parameters:
 419:Generated_Source\PSoC5/PWM3.c ****     *  None
 420:Generated_Source\PSoC5/PWM3.c ****     *
 421:Generated_Source\PSoC5/PWM3.c ****     * Return:
 422:Generated_Source\PSoC5/PWM3.c ****     *  The current value of the counter.
 423:Generated_Source\PSoC5/PWM3.c ****     *
 424:Generated_Source\PSoC5/PWM3.c ****     *******************************************************************************/
 425:Generated_Source\PSoC5/PWM3.c ****     uint8 PWM3_ReadCounter(void) 
 426:Generated_Source\PSoC5/PWM3.c ****     {
 105              		.loc 1 426 0
 106              		.cfi_startproc
 107              		@ args = 0, pretend = 0, frame = 0
 108              		@ frame_needed = 0, uses_anonymous_args = 0
 109              		@ link register save eliminated.
 427:Generated_Source\PSoC5/PWM3.c ****         /* Force capture by reading Accumulator */
 428:Generated_Source\PSoC5/PWM3.c ****         /* Must first do a software capture to be able to read the counter */
 429:Generated_Source\PSoC5/PWM3.c ****         /* It is up to the user code to make sure there isn't already captured data in the FIFO */
 430:Generated_Source\PSoC5/PWM3.c ****           (void)CY_GET_REG8(PWM3_COUNTERCAP_LSB_PTR_8BIT);
 110              		.loc 1 430 0
 111 0000 024B     		ldr	r3, .L11
 112 0002 1B78     		ldrb	r3, [r3]	@ zero_extendqisi2
 431:Generated_Source\PSoC5/PWM3.c **** 
 432:Generated_Source\PSoC5/PWM3.c ****         /* Read the data from the FIFO */
 433:Generated_Source\PSoC5/PWM3.c ****         return (CY_GET_REG8(PWM3_CAPTURE_LSB_PTR));
 113              		.loc 1 433 0
 114 0004 024B     		ldr	r3, .L11+4
 115 0006 1878     		ldrb	r0, [r3]	@ zero_extendqisi2
 434:Generated_Source\PSoC5/PWM3.c ****     }
 116              		.loc 1 434 0
 117 0008 7047     		bx	lr
 118              	.L12:
 119 000a 00BF     		.align	2
 120              	.L11:
 121 000c 14650040 		.word	1073767700
 122 0010 54650040 		.word	1073767764
 123              		.cfi_endproc
 124              	.LFE5:
 125              		.size	PWM3_ReadCounter, .-PWM3_ReadCounter
 126              		.section	.text.PWM3_WritePeriod,"ax",%progbits
 127              		.align	2
 128              		.global	PWM3_WritePeriod
 129              		.thumb
 130              		.thumb_func
 131              		.type	PWM3_WritePeriod, %function
 132              	PWM3_WritePeriod:
 133              	.LFB6:
 435:Generated_Source\PSoC5/PWM3.c **** 
 436:Generated_Source\PSoC5/PWM3.c ****     #if (PWM3_UseStatus)
 437:Generated_Source\PSoC5/PWM3.c **** 
ARM GAS  C:\Users\tkam627\AppData\Local\Temp\ccTcM7WQ.s 			page 11


 438:Generated_Source\PSoC5/PWM3.c **** 
 439:Generated_Source\PSoC5/PWM3.c ****         /*******************************************************************************
 440:Generated_Source\PSoC5/PWM3.c ****         * Function Name: PWM3_ClearFIFO
 441:Generated_Source\PSoC5/PWM3.c ****         ********************************************************************************
 442:Generated_Source\PSoC5/PWM3.c ****         *
 443:Generated_Source\PSoC5/PWM3.c ****         * Summary:
 444:Generated_Source\PSoC5/PWM3.c ****         *  This function clears all capture data from the capture FIFO
 445:Generated_Source\PSoC5/PWM3.c ****         *
 446:Generated_Source\PSoC5/PWM3.c ****         * Parameters:
 447:Generated_Source\PSoC5/PWM3.c ****         *  None
 448:Generated_Source\PSoC5/PWM3.c ****         *
 449:Generated_Source\PSoC5/PWM3.c ****         * Return:
 450:Generated_Source\PSoC5/PWM3.c ****         *  None
 451:Generated_Source\PSoC5/PWM3.c ****         *
 452:Generated_Source\PSoC5/PWM3.c ****         *******************************************************************************/
 453:Generated_Source\PSoC5/PWM3.c ****         void PWM3_ClearFIFO(void) 
 454:Generated_Source\PSoC5/PWM3.c ****         {
 455:Generated_Source\PSoC5/PWM3.c ****             while(0u != (PWM3_ReadStatusRegister() & PWM3_STATUS_FIFONEMPTY))
 456:Generated_Source\PSoC5/PWM3.c ****             {
 457:Generated_Source\PSoC5/PWM3.c ****                 (void)PWM3_ReadCapture();
 458:Generated_Source\PSoC5/PWM3.c ****             }
 459:Generated_Source\PSoC5/PWM3.c ****         }
 460:Generated_Source\PSoC5/PWM3.c **** 
 461:Generated_Source\PSoC5/PWM3.c ****     #endif /* PWM3_UseStatus */
 462:Generated_Source\PSoC5/PWM3.c **** 
 463:Generated_Source\PSoC5/PWM3.c **** #endif /* !PWM3_UsingFixedFunction */
 464:Generated_Source\PSoC5/PWM3.c **** 
 465:Generated_Source\PSoC5/PWM3.c **** 
 466:Generated_Source\PSoC5/PWM3.c **** /*******************************************************************************
 467:Generated_Source\PSoC5/PWM3.c **** * Function Name: PWM3_WritePeriod
 468:Generated_Source\PSoC5/PWM3.c **** ********************************************************************************
 469:Generated_Source\PSoC5/PWM3.c **** *
 470:Generated_Source\PSoC5/PWM3.c **** * Summary:
 471:Generated_Source\PSoC5/PWM3.c **** *  This function is used to change the period of the counter.  The new period
 472:Generated_Source\PSoC5/PWM3.c **** *  will be loaded the next time terminal count is detected.
 473:Generated_Source\PSoC5/PWM3.c **** *
 474:Generated_Source\PSoC5/PWM3.c **** * Parameters:
 475:Generated_Source\PSoC5/PWM3.c **** *  period:  Period value. May be between 1 and (2^Resolution)-1.  A value of 0
 476:Generated_Source\PSoC5/PWM3.c **** *           will result in the counter remaining at zero.
 477:Generated_Source\PSoC5/PWM3.c **** *
 478:Generated_Source\PSoC5/PWM3.c **** * Return:
 479:Generated_Source\PSoC5/PWM3.c **** *  None
 480:Generated_Source\PSoC5/PWM3.c **** *
 481:Generated_Source\PSoC5/PWM3.c **** *******************************************************************************/
 482:Generated_Source\PSoC5/PWM3.c **** void PWM3_WritePeriod(uint8 period) 
 483:Generated_Source\PSoC5/PWM3.c **** {
 134              		.loc 1 483 0
 135              		.cfi_startproc
 136              		@ args = 0, pretend = 0, frame = 0
 137              		@ frame_needed = 0, uses_anonymous_args = 0
 138              		@ link register save eliminated.
 139              	.LVL1:
 484:Generated_Source\PSoC5/PWM3.c ****     #if(PWM3_UsingFixedFunction)
 485:Generated_Source\PSoC5/PWM3.c ****         CY_SET_REG16(PWM3_PERIOD_LSB_PTR, (uint16)period);
 486:Generated_Source\PSoC5/PWM3.c ****     #else
 487:Generated_Source\PSoC5/PWM3.c ****         CY_SET_REG8(PWM3_PERIOD_LSB_PTR, period);
 140              		.loc 1 487 0
ARM GAS  C:\Users\tkam627\AppData\Local\Temp\ccTcM7WQ.s 			page 12


 141 0000 014B     		ldr	r3, .L14
 142 0002 1870     		strb	r0, [r3]
 143 0004 7047     		bx	lr
 144              	.L15:
 145 0006 00BF     		.align	2
 146              	.L14:
 147 0008 44650040 		.word	1073767748
 148              		.cfi_endproc
 149              	.LFE6:
 150              		.size	PWM3_WritePeriod, .-PWM3_WritePeriod
 151              		.section	.text.PWM3_WriteCompare1,"ax",%progbits
 152              		.align	2
 153              		.global	PWM3_WriteCompare1
 154              		.thumb
 155              		.thumb_func
 156              		.type	PWM3_WriteCompare1, %function
 157              	PWM3_WriteCompare1:
 158              	.LFB7:
 488:Generated_Source\PSoC5/PWM3.c ****     #endif /* (PWM3_UsingFixedFunction) */
 489:Generated_Source\PSoC5/PWM3.c **** }
 490:Generated_Source\PSoC5/PWM3.c **** 
 491:Generated_Source\PSoC5/PWM3.c **** #if (PWM3_UseOneCompareMode)
 492:Generated_Source\PSoC5/PWM3.c **** 
 493:Generated_Source\PSoC5/PWM3.c **** 
 494:Generated_Source\PSoC5/PWM3.c ****     /*******************************************************************************
 495:Generated_Source\PSoC5/PWM3.c ****     * Function Name: PWM3_WriteCompare
 496:Generated_Source\PSoC5/PWM3.c ****     ********************************************************************************
 497:Generated_Source\PSoC5/PWM3.c ****     *
 498:Generated_Source\PSoC5/PWM3.c ****     * Summary:
 499:Generated_Source\PSoC5/PWM3.c ****     *  This funtion is used to change the compare1 value when the PWM is in Dither
 500:Generated_Source\PSoC5/PWM3.c ****     *  mode. The compare output will reflect the new value on the next UDB clock.
 501:Generated_Source\PSoC5/PWM3.c ****     *  The compare output will be driven high when the present counter value is
 502:Generated_Source\PSoC5/PWM3.c ****     *  compared to the compare value based on the compare mode defined in
 503:Generated_Source\PSoC5/PWM3.c ****     *  Dither Mode.
 504:Generated_Source\PSoC5/PWM3.c ****     *
 505:Generated_Source\PSoC5/PWM3.c ****     * Parameters:
 506:Generated_Source\PSoC5/PWM3.c ****     *  compare:  New compare value.
 507:Generated_Source\PSoC5/PWM3.c ****     *
 508:Generated_Source\PSoC5/PWM3.c ****     * Return:
 509:Generated_Source\PSoC5/PWM3.c ****     *  None
 510:Generated_Source\PSoC5/PWM3.c ****     *
 511:Generated_Source\PSoC5/PWM3.c ****     * Side Effects:
 512:Generated_Source\PSoC5/PWM3.c ****     *  This function is only available if the PWM mode parameter is set to
 513:Generated_Source\PSoC5/PWM3.c ****     *  Dither Mode, Center Aligned Mode or One Output Mode
 514:Generated_Source\PSoC5/PWM3.c ****     *
 515:Generated_Source\PSoC5/PWM3.c ****     *******************************************************************************/
 516:Generated_Source\PSoC5/PWM3.c ****     void PWM3_WriteCompare(uint8 compare) \
 517:Generated_Source\PSoC5/PWM3.c ****                                        
 518:Generated_Source\PSoC5/PWM3.c ****     {
 519:Generated_Source\PSoC5/PWM3.c ****         #if(PWM3_UsingFixedFunction)
 520:Generated_Source\PSoC5/PWM3.c ****             CY_SET_REG16(PWM3_COMPARE1_LSB_PTR, (uint16)compare);
 521:Generated_Source\PSoC5/PWM3.c ****         #else
 522:Generated_Source\PSoC5/PWM3.c ****             CY_SET_REG8(PWM3_COMPARE1_LSB_PTR, compare);
 523:Generated_Source\PSoC5/PWM3.c ****         #endif /* (PWM3_UsingFixedFunction) */
 524:Generated_Source\PSoC5/PWM3.c **** 
 525:Generated_Source\PSoC5/PWM3.c ****         #if (PWM3_PWMMode == PWM3__B_PWM__DITHER)
 526:Generated_Source\PSoC5/PWM3.c ****             #if(PWM3_UsingFixedFunction)
ARM GAS  C:\Users\tkam627\AppData\Local\Temp\ccTcM7WQ.s 			page 13


 527:Generated_Source\PSoC5/PWM3.c ****                 CY_SET_REG16(PWM3_COMPARE2_LSB_PTR, (uint16)(compare + 1u));
 528:Generated_Source\PSoC5/PWM3.c ****             #else
 529:Generated_Source\PSoC5/PWM3.c ****                 CY_SET_REG8(PWM3_COMPARE2_LSB_PTR, (compare + 1u));
 530:Generated_Source\PSoC5/PWM3.c ****             #endif /* (PWM3_UsingFixedFunction) */
 531:Generated_Source\PSoC5/PWM3.c ****         #endif /* (PWM3_PWMMode == PWM3__B_PWM__DITHER) */
 532:Generated_Source\PSoC5/PWM3.c ****     }
 533:Generated_Source\PSoC5/PWM3.c **** 
 534:Generated_Source\PSoC5/PWM3.c **** 
 535:Generated_Source\PSoC5/PWM3.c **** #else
 536:Generated_Source\PSoC5/PWM3.c **** 
 537:Generated_Source\PSoC5/PWM3.c **** 
 538:Generated_Source\PSoC5/PWM3.c ****     /*******************************************************************************
 539:Generated_Source\PSoC5/PWM3.c ****     * Function Name: PWM3_WriteCompare1
 540:Generated_Source\PSoC5/PWM3.c ****     ********************************************************************************
 541:Generated_Source\PSoC5/PWM3.c ****     *
 542:Generated_Source\PSoC5/PWM3.c ****     * Summary:
 543:Generated_Source\PSoC5/PWM3.c ****     *  This funtion is used to change the compare1 value.  The compare output will
 544:Generated_Source\PSoC5/PWM3.c ****     *  reflect the new value on the next UDB clock.  The compare output will be
 545:Generated_Source\PSoC5/PWM3.c ****     *  driven high when the present counter value is less than or less than or
 546:Generated_Source\PSoC5/PWM3.c ****     *  equal to the compare register, depending on the mode.
 547:Generated_Source\PSoC5/PWM3.c ****     *
 548:Generated_Source\PSoC5/PWM3.c ****     * Parameters:
 549:Generated_Source\PSoC5/PWM3.c ****     *  compare:  New compare value.
 550:Generated_Source\PSoC5/PWM3.c ****     *
 551:Generated_Source\PSoC5/PWM3.c ****     * Return:
 552:Generated_Source\PSoC5/PWM3.c ****     *  None
 553:Generated_Source\PSoC5/PWM3.c ****     *
 554:Generated_Source\PSoC5/PWM3.c ****     *******************************************************************************/
 555:Generated_Source\PSoC5/PWM3.c ****     void PWM3_WriteCompare1(uint8 compare) \
 556:Generated_Source\PSoC5/PWM3.c ****                                         
 557:Generated_Source\PSoC5/PWM3.c ****     {
 159              		.loc 1 557 0
 160              		.cfi_startproc
 161              		@ args = 0, pretend = 0, frame = 0
 162              		@ frame_needed = 0, uses_anonymous_args = 0
 163              		@ link register save eliminated.
 164              	.LVL2:
 558:Generated_Source\PSoC5/PWM3.c ****         #if(PWM3_UsingFixedFunction)
 559:Generated_Source\PSoC5/PWM3.c ****             CY_SET_REG16(PWM3_COMPARE1_LSB_PTR, (uint16)compare);
 560:Generated_Source\PSoC5/PWM3.c ****         #else
 561:Generated_Source\PSoC5/PWM3.c ****             CY_SET_REG8(PWM3_COMPARE1_LSB_PTR, compare);
 165              		.loc 1 561 0
 166 0000 014B     		ldr	r3, .L17
 167 0002 1870     		strb	r0, [r3]
 168 0004 7047     		bx	lr
 169              	.L18:
 170 0006 00BF     		.align	2
 171              	.L17:
 172 0008 24650040 		.word	1073767716
 173              		.cfi_endproc
 174              	.LFE7:
 175              		.size	PWM3_WriteCompare1, .-PWM3_WriteCompare1
 176              		.section	.text.PWM3_WriteCompare2,"ax",%progbits
 177              		.align	2
 178              		.global	PWM3_WriteCompare2
 179              		.thumb
 180              		.thumb_func
ARM GAS  C:\Users\tkam627\AppData\Local\Temp\ccTcM7WQ.s 			page 14


 181              		.type	PWM3_WriteCompare2, %function
 182              	PWM3_WriteCompare2:
 183              	.LFB8:
 562:Generated_Source\PSoC5/PWM3.c ****         #endif /* (PWM3_UsingFixedFunction) */
 563:Generated_Source\PSoC5/PWM3.c ****     }
 564:Generated_Source\PSoC5/PWM3.c **** 
 565:Generated_Source\PSoC5/PWM3.c **** 
 566:Generated_Source\PSoC5/PWM3.c ****     /*******************************************************************************
 567:Generated_Source\PSoC5/PWM3.c ****     * Function Name: PWM3_WriteCompare2
 568:Generated_Source\PSoC5/PWM3.c ****     ********************************************************************************
 569:Generated_Source\PSoC5/PWM3.c ****     *
 570:Generated_Source\PSoC5/PWM3.c ****     * Summary:
 571:Generated_Source\PSoC5/PWM3.c ****     *  This funtion is used to change the compare value, for compare1 output.
 572:Generated_Source\PSoC5/PWM3.c ****     *  The compare output will reflect the new value on the next UDB clock.
 573:Generated_Source\PSoC5/PWM3.c ****     *  The compare output will be driven high when the present counter value is
 574:Generated_Source\PSoC5/PWM3.c ****     *  less than or less than or equal to the compare register, depending on the
 575:Generated_Source\PSoC5/PWM3.c ****     *  mode.
 576:Generated_Source\PSoC5/PWM3.c ****     *
 577:Generated_Source\PSoC5/PWM3.c ****     * Parameters:
 578:Generated_Source\PSoC5/PWM3.c ****     *  compare:  New compare value.
 579:Generated_Source\PSoC5/PWM3.c ****     *
 580:Generated_Source\PSoC5/PWM3.c ****     * Return:
 581:Generated_Source\PSoC5/PWM3.c ****     *  None
 582:Generated_Source\PSoC5/PWM3.c ****     *
 583:Generated_Source\PSoC5/PWM3.c ****     *******************************************************************************/
 584:Generated_Source\PSoC5/PWM3.c ****     void PWM3_WriteCompare2(uint8 compare) \
 585:Generated_Source\PSoC5/PWM3.c ****                                         
 586:Generated_Source\PSoC5/PWM3.c ****     {
 184              		.loc 1 586 0
 185              		.cfi_startproc
 186              		@ args = 0, pretend = 0, frame = 0
 187              		@ frame_needed = 0, uses_anonymous_args = 0
 188              		@ link register save eliminated.
 189              	.LVL3:
 587:Generated_Source\PSoC5/PWM3.c ****         #if(PWM3_UsingFixedFunction)
 588:Generated_Source\PSoC5/PWM3.c ****             CY_SET_REG16(PWM3_COMPARE2_LSB_PTR, compare);
 589:Generated_Source\PSoC5/PWM3.c ****         #else
 590:Generated_Source\PSoC5/PWM3.c ****             CY_SET_REG8(PWM3_COMPARE2_LSB_PTR, compare);
 190              		.loc 1 590 0
 191 0000 014B     		ldr	r3, .L20
 192 0002 1870     		strb	r0, [r3]
 193 0004 7047     		bx	lr
 194              	.L21:
 195 0006 00BF     		.align	2
 196              	.L20:
 197 0008 34650040 		.word	1073767732
 198              		.cfi_endproc
 199              	.LFE8:
 200              		.size	PWM3_WriteCompare2, .-PWM3_WriteCompare2
 201              		.section	.text.PWM3_Init,"ax",%progbits
 202              		.align	2
 203              		.global	PWM3_Init
 204              		.thumb
 205              		.thumb_func
 206              		.type	PWM3_Init, %function
 207              	PWM3_Init:
 208              	.LFB1:
ARM GAS  C:\Users\tkam627\AppData\Local\Temp\ccTcM7WQ.s 			page 15


  85:Generated_Source\PSoC5/PWM3.c ****     #if (PWM3_UsingFixedFunction || PWM3_UseControl)
 209              		.loc 1 85 0
 210              		.cfi_startproc
 211              		@ args = 0, pretend = 0, frame = 0
 212              		@ frame_needed = 0, uses_anonymous_args = 0
 213 0000 08B5     		push	{r3, lr}
 214              		.cfi_def_cfa_offset 8
 215              		.cfi_offset 3, -8
 216              		.cfi_offset 14, -4
 117:Generated_Source\PSoC5/PWM3.c ****                 ((uint8)(~PWM3_CTRL_CMPMODE1_MASK));
 217              		.loc 1 117 0
 218 0002 0C4A     		ldr	r2, .L24
 219 0004 1378     		ldrb	r3, [r2]	@ zero_extendqisi2
 220 0006 03F0C003 		and	r3, r3, #192
 221              	.LVL4:
 119:Generated_Source\PSoC5/PWM3.c ****                                    PWM3_DEFAULT_COMPARE1_MODE;
 222              		.loc 1 119 0
 223 000a 43F00903 		orr	r3, r3, #9
 224              	.LVL5:
 225 000e 1370     		strb	r3, [r2]
 126:Generated_Source\PSoC5/PWM3.c ****         #else /* (PWM3_Resolution == 16)*/
 226              		.loc 1 126 0
 227 0010 2032     		adds	r2, r2, #32
 228 0012 1378     		ldrb	r3, [r2]	@ zero_extendqisi2
 229 0014 43F00103 		orr	r3, r3, #1
 230 0018 1370     		strb	r3, [r2]
 133:Generated_Source\PSoC5/PWM3.c ****     #endif /* (!PWM3_UsingFixedFunction) */
 231              		.loc 1 133 0
 232 001a FF20     		movs	r0, #255
 233 001c FFF7FEFF 		bl	PWM3_WriteCounter
 234              	.LVL6:
 136:Generated_Source\PSoC5/PWM3.c **** 
 235              		.loc 1 136 0
 236 0020 FF20     		movs	r0, #255
 237 0022 FFF7FEFF 		bl	PWM3_WritePeriod
 238              	.LVL7:
 141:Generated_Source\PSoC5/PWM3.c ****             PWM3_WriteCompare2(PWM3_INIT_COMPARE_VALUE2);
 239              		.loc 1 141 0
 240 0026 7D20     		movs	r0, #125
 241 0028 FFF7FEFF 		bl	PWM3_WriteCompare1
 242              	.LVL8:
 142:Generated_Source\PSoC5/PWM3.c ****         #endif /* (PWM3_UseOneCompareMode) */
 243              		.loc 1 142 0
 244 002c 7D20     		movs	r0, #125
 245 002e FFF7FEFF 		bl	PWM3_WriteCompare2
 246              	.LVL9:
 247 0032 08BD     		pop	{r3, pc}
 248              	.L25:
 249              		.align	2
 250              	.L24:
 251 0034 74650040 		.word	1073767796
 252              		.cfi_endproc
 253              	.LFE1:
 254              		.size	PWM3_Init, .-PWM3_Init
 255              		.section	.text.PWM3_Start,"ax",%progbits
 256              		.align	2
 257              		.global	PWM3_Start
ARM GAS  C:\Users\tkam627\AppData\Local\Temp\ccTcM7WQ.s 			page 16


 258              		.thumb
 259              		.thumb_func
 260              		.type	PWM3_Start, %function
 261              	PWM3_Start:
 262              	.LFB0:
  56:Generated_Source\PSoC5/PWM3.c ****     /* If not Initialized then initialize all required hardware and software */
 263              		.loc 1 56 0
 264              		.cfi_startproc
 265              		@ args = 0, pretend = 0, frame = 0
 266              		@ frame_needed = 0, uses_anonymous_args = 0
 267 0000 08B5     		push	{r3, lr}
 268              		.cfi_def_cfa_offset 8
 269              		.cfi_offset 3, -8
 270              		.cfi_offset 14, -4
  58:Generated_Source\PSoC5/PWM3.c ****     {
 271              		.loc 1 58 0
 272 0002 054B     		ldr	r3, .L29
 273 0004 1B78     		ldrb	r3, [r3]	@ zero_extendqisi2
 274 0006 23B9     		cbnz	r3, .L27
  60:Generated_Source\PSoC5/PWM3.c ****         PWM3_initVar = 1u;
 275              		.loc 1 60 0
 276 0008 FFF7FEFF 		bl	PWM3_Init
 277              	.LVL10:
  61:Generated_Source\PSoC5/PWM3.c ****     }
 278              		.loc 1 61 0
 279 000c 0122     		movs	r2, #1
 280 000e 024B     		ldr	r3, .L29
 281 0010 1A70     		strb	r2, [r3]
 282              	.L27:
  63:Generated_Source\PSoC5/PWM3.c **** 
 283              		.loc 1 63 0
 284 0012 FFF7FEFF 		bl	PWM3_Enable
 285              	.LVL11:
 286 0016 08BD     		pop	{r3, pc}
 287              	.L30:
 288              		.align	2
 289              	.L29:
 290 0018 00000000 		.word	.LANCHOR0
 291              		.cfi_endproc
 292              	.LFE0:
 293              		.size	PWM3_Start, .-PWM3_Start
 294              		.section	.text.PWM3_ReadControlRegister,"ax",%progbits
 295              		.align	2
 296              		.global	PWM3_ReadControlRegister
 297              		.thumb
 298              		.thumb_func
 299              		.type	PWM3_ReadControlRegister, %function
 300              	PWM3_ReadControlRegister:
 301              	.LFB9:
 591:Generated_Source\PSoC5/PWM3.c ****         #endif /* (PWM3_UsingFixedFunction) */
 592:Generated_Source\PSoC5/PWM3.c ****     }
 593:Generated_Source\PSoC5/PWM3.c **** #endif /* UseOneCompareMode */
 594:Generated_Source\PSoC5/PWM3.c **** 
 595:Generated_Source\PSoC5/PWM3.c **** #if (PWM3_DeadBandUsed)
 596:Generated_Source\PSoC5/PWM3.c **** 
 597:Generated_Source\PSoC5/PWM3.c **** 
 598:Generated_Source\PSoC5/PWM3.c ****     /*******************************************************************************
ARM GAS  C:\Users\tkam627\AppData\Local\Temp\ccTcM7WQ.s 			page 17


 599:Generated_Source\PSoC5/PWM3.c ****     * Function Name: PWM3_WriteDeadTime
 600:Generated_Source\PSoC5/PWM3.c ****     ********************************************************************************
 601:Generated_Source\PSoC5/PWM3.c ****     *
 602:Generated_Source\PSoC5/PWM3.c ****     * Summary:
 603:Generated_Source\PSoC5/PWM3.c ****     *  This function writes the dead-band counts to the corresponding register
 604:Generated_Source\PSoC5/PWM3.c ****     *
 605:Generated_Source\PSoC5/PWM3.c ****     * Parameters:
 606:Generated_Source\PSoC5/PWM3.c ****     *  deadtime:  Number of counts for dead time
 607:Generated_Source\PSoC5/PWM3.c ****     *
 608:Generated_Source\PSoC5/PWM3.c ****     * Return:
 609:Generated_Source\PSoC5/PWM3.c ****     *  None
 610:Generated_Source\PSoC5/PWM3.c ****     *
 611:Generated_Source\PSoC5/PWM3.c ****     *******************************************************************************/
 612:Generated_Source\PSoC5/PWM3.c ****     void PWM3_WriteDeadTime(uint8 deadtime) 
 613:Generated_Source\PSoC5/PWM3.c ****     {
 614:Generated_Source\PSoC5/PWM3.c ****         /* If using the Dead Band 1-255 mode then just write the register */
 615:Generated_Source\PSoC5/PWM3.c ****         #if(!PWM3_DeadBand2_4)
 616:Generated_Source\PSoC5/PWM3.c ****             CY_SET_REG8(PWM3_DEADBAND_COUNT_PTR, deadtime);
 617:Generated_Source\PSoC5/PWM3.c ****         #else
 618:Generated_Source\PSoC5/PWM3.c ****             /* Otherwise the data has to be masked and offset */
 619:Generated_Source\PSoC5/PWM3.c ****             /* Clear existing data */
 620:Generated_Source\PSoC5/PWM3.c ****             PWM3_DEADBAND_COUNT &= ((uint8)(~PWM3_DEADBAND_COUNT_MASK));
 621:Generated_Source\PSoC5/PWM3.c **** 
 622:Generated_Source\PSoC5/PWM3.c ****             /* Set new dead time */
 623:Generated_Source\PSoC5/PWM3.c ****             #if(PWM3_DEADBAND_COUNT_SHIFT)
 624:Generated_Source\PSoC5/PWM3.c ****                 PWM3_DEADBAND_COUNT |= ((uint8)((uint8)deadtime << PWM3_DEADBAND_COUNT_SHIFT)) &
 625:Generated_Source\PSoC5/PWM3.c ****                                                     PWM3_DEADBAND_COUNT_MASK;
 626:Generated_Source\PSoC5/PWM3.c ****             #else
 627:Generated_Source\PSoC5/PWM3.c ****                 PWM3_DEADBAND_COUNT |= deadtime & PWM3_DEADBAND_COUNT_MASK;
 628:Generated_Source\PSoC5/PWM3.c ****             #endif /* (PWM3_DEADBAND_COUNT_SHIFT) */
 629:Generated_Source\PSoC5/PWM3.c **** 
 630:Generated_Source\PSoC5/PWM3.c ****         #endif /* (!PWM3_DeadBand2_4) */
 631:Generated_Source\PSoC5/PWM3.c ****     }
 632:Generated_Source\PSoC5/PWM3.c **** 
 633:Generated_Source\PSoC5/PWM3.c **** 
 634:Generated_Source\PSoC5/PWM3.c ****     /*******************************************************************************
 635:Generated_Source\PSoC5/PWM3.c ****     * Function Name: PWM3_ReadDeadTime
 636:Generated_Source\PSoC5/PWM3.c ****     ********************************************************************************
 637:Generated_Source\PSoC5/PWM3.c ****     *
 638:Generated_Source\PSoC5/PWM3.c ****     * Summary:
 639:Generated_Source\PSoC5/PWM3.c ****     *  This function reads the dead-band counts from the corresponding register
 640:Generated_Source\PSoC5/PWM3.c ****     *
 641:Generated_Source\PSoC5/PWM3.c ****     * Parameters:
 642:Generated_Source\PSoC5/PWM3.c ****     *  None
 643:Generated_Source\PSoC5/PWM3.c ****     *
 644:Generated_Source\PSoC5/PWM3.c ****     * Return:
 645:Generated_Source\PSoC5/PWM3.c ****     *  Dead Band Counts
 646:Generated_Source\PSoC5/PWM3.c ****     *
 647:Generated_Source\PSoC5/PWM3.c ****     *******************************************************************************/
 648:Generated_Source\PSoC5/PWM3.c ****     uint8 PWM3_ReadDeadTime(void) 
 649:Generated_Source\PSoC5/PWM3.c ****     {
 650:Generated_Source\PSoC5/PWM3.c ****         /* If using the Dead Band 1-255 mode then just read the register */
 651:Generated_Source\PSoC5/PWM3.c ****         #if(!PWM3_DeadBand2_4)
 652:Generated_Source\PSoC5/PWM3.c ****             return (CY_GET_REG8(PWM3_DEADBAND_COUNT_PTR));
 653:Generated_Source\PSoC5/PWM3.c ****         #else
 654:Generated_Source\PSoC5/PWM3.c **** 
 655:Generated_Source\PSoC5/PWM3.c ****             /* Otherwise the data has to be masked and offset */
ARM GAS  C:\Users\tkam627\AppData\Local\Temp\ccTcM7WQ.s 			page 18


 656:Generated_Source\PSoC5/PWM3.c ****             #if(PWM3_DEADBAND_COUNT_SHIFT)
 657:Generated_Source\PSoC5/PWM3.c ****                 return ((uint8)(((uint8)(PWM3_DEADBAND_COUNT & PWM3_DEADBAND_COUNT_MASK)) >>
 658:Generated_Source\PSoC5/PWM3.c ****                                                                            PWM3_DEADBAND_COUNT_SHIF
 659:Generated_Source\PSoC5/PWM3.c ****             #else
 660:Generated_Source\PSoC5/PWM3.c ****                 return (PWM3_DEADBAND_COUNT & PWM3_DEADBAND_COUNT_MASK);
 661:Generated_Source\PSoC5/PWM3.c ****             #endif /* (PWM3_DEADBAND_COUNT_SHIFT) */
 662:Generated_Source\PSoC5/PWM3.c ****         #endif /* (!PWM3_DeadBand2_4) */
 663:Generated_Source\PSoC5/PWM3.c ****     }
 664:Generated_Source\PSoC5/PWM3.c **** #endif /* DeadBandUsed */
 665:Generated_Source\PSoC5/PWM3.c **** 
 666:Generated_Source\PSoC5/PWM3.c **** #if (PWM3_UseStatus || PWM3_UsingFixedFunction)
 667:Generated_Source\PSoC5/PWM3.c **** 
 668:Generated_Source\PSoC5/PWM3.c **** 
 669:Generated_Source\PSoC5/PWM3.c ****     /*******************************************************************************
 670:Generated_Source\PSoC5/PWM3.c ****     * Function Name: PWM3_SetInterruptMode
 671:Generated_Source\PSoC5/PWM3.c ****     ********************************************************************************
 672:Generated_Source\PSoC5/PWM3.c ****     *
 673:Generated_Source\PSoC5/PWM3.c ****     * Summary:
 674:Generated_Source\PSoC5/PWM3.c ****     *  This function configures the interrupts mask control of theinterrupt
 675:Generated_Source\PSoC5/PWM3.c ****     *  source status register.
 676:Generated_Source\PSoC5/PWM3.c ****     *
 677:Generated_Source\PSoC5/PWM3.c ****     * Parameters:
 678:Generated_Source\PSoC5/PWM3.c ****     *  uint8 interruptMode: Bit field containing the interrupt sources enabled
 679:Generated_Source\PSoC5/PWM3.c ****     *
 680:Generated_Source\PSoC5/PWM3.c ****     * Return:
 681:Generated_Source\PSoC5/PWM3.c ****     *  None
 682:Generated_Source\PSoC5/PWM3.c ****     *
 683:Generated_Source\PSoC5/PWM3.c ****     *******************************************************************************/
 684:Generated_Source\PSoC5/PWM3.c ****     void PWM3_SetInterruptMode(uint8 interruptMode) 
 685:Generated_Source\PSoC5/PWM3.c ****     {
 686:Generated_Source\PSoC5/PWM3.c ****         CY_SET_REG8(PWM3_STATUS_MASK_PTR, interruptMode);
 687:Generated_Source\PSoC5/PWM3.c ****     }
 688:Generated_Source\PSoC5/PWM3.c **** 
 689:Generated_Source\PSoC5/PWM3.c **** 
 690:Generated_Source\PSoC5/PWM3.c ****     /*******************************************************************************
 691:Generated_Source\PSoC5/PWM3.c ****     * Function Name: PWM3_ReadStatusRegister
 692:Generated_Source\PSoC5/PWM3.c ****     ********************************************************************************
 693:Generated_Source\PSoC5/PWM3.c ****     *
 694:Generated_Source\PSoC5/PWM3.c ****     * Summary:
 695:Generated_Source\PSoC5/PWM3.c ****     *  This function returns the current state of the status register.
 696:Generated_Source\PSoC5/PWM3.c ****     *
 697:Generated_Source\PSoC5/PWM3.c ****     * Parameters:
 698:Generated_Source\PSoC5/PWM3.c ****     *  None
 699:Generated_Source\PSoC5/PWM3.c ****     *
 700:Generated_Source\PSoC5/PWM3.c ****     * Return:
 701:Generated_Source\PSoC5/PWM3.c ****     *  uint8 : Current status register value. The status register bits are:
 702:Generated_Source\PSoC5/PWM3.c ****     *  [7:6] : Unused(0)
 703:Generated_Source\PSoC5/PWM3.c ****     *  [5]   : Kill event output
 704:Generated_Source\PSoC5/PWM3.c ****     *  [4]   : FIFO not empty
 705:Generated_Source\PSoC5/PWM3.c ****     *  [3]   : FIFO full
 706:Generated_Source\PSoC5/PWM3.c ****     *  [2]   : Terminal count
 707:Generated_Source\PSoC5/PWM3.c ****     *  [1]   : Compare output 2
 708:Generated_Source\PSoC5/PWM3.c ****     *  [0]   : Compare output 1
 709:Generated_Source\PSoC5/PWM3.c ****     *
 710:Generated_Source\PSoC5/PWM3.c ****     *******************************************************************************/
 711:Generated_Source\PSoC5/PWM3.c ****     uint8 PWM3_ReadStatusRegister(void) 
 712:Generated_Source\PSoC5/PWM3.c ****     {
ARM GAS  C:\Users\tkam627\AppData\Local\Temp\ccTcM7WQ.s 			page 19


 713:Generated_Source\PSoC5/PWM3.c ****         return (CY_GET_REG8(PWM3_STATUS_PTR));
 714:Generated_Source\PSoC5/PWM3.c ****     }
 715:Generated_Source\PSoC5/PWM3.c **** 
 716:Generated_Source\PSoC5/PWM3.c **** #endif /* (PWM3_UseStatus || PWM3_UsingFixedFunction) */
 717:Generated_Source\PSoC5/PWM3.c **** 
 718:Generated_Source\PSoC5/PWM3.c **** 
 719:Generated_Source\PSoC5/PWM3.c **** #if (PWM3_UseControl)
 720:Generated_Source\PSoC5/PWM3.c **** 
 721:Generated_Source\PSoC5/PWM3.c **** 
 722:Generated_Source\PSoC5/PWM3.c ****     /*******************************************************************************
 723:Generated_Source\PSoC5/PWM3.c ****     * Function Name: PWM3_ReadControlRegister
 724:Generated_Source\PSoC5/PWM3.c ****     ********************************************************************************
 725:Generated_Source\PSoC5/PWM3.c ****     *
 726:Generated_Source\PSoC5/PWM3.c ****     * Summary:
 727:Generated_Source\PSoC5/PWM3.c ****     *  Returns the current state of the control register. This API is available
 728:Generated_Source\PSoC5/PWM3.c ****     *  only if the control register is not removed.
 729:Generated_Source\PSoC5/PWM3.c ****     *
 730:Generated_Source\PSoC5/PWM3.c ****     * Parameters:
 731:Generated_Source\PSoC5/PWM3.c ****     *  None
 732:Generated_Source\PSoC5/PWM3.c ****     *
 733:Generated_Source\PSoC5/PWM3.c ****     * Return:
 734:Generated_Source\PSoC5/PWM3.c ****     *  uint8 : Current control register value
 735:Generated_Source\PSoC5/PWM3.c ****     *
 736:Generated_Source\PSoC5/PWM3.c ****     *******************************************************************************/
 737:Generated_Source\PSoC5/PWM3.c ****     uint8 PWM3_ReadControlRegister(void) 
 738:Generated_Source\PSoC5/PWM3.c ****     {
 302              		.loc 1 738 0
 303              		.cfi_startproc
 304              		@ args = 0, pretend = 0, frame = 0
 305              		@ frame_needed = 0, uses_anonymous_args = 0
 306              		@ link register save eliminated.
 739:Generated_Source\PSoC5/PWM3.c ****         uint8 result;
 740:Generated_Source\PSoC5/PWM3.c **** 
 741:Generated_Source\PSoC5/PWM3.c ****         result = CY_GET_REG8(PWM3_CONTROL_PTR);
 307              		.loc 1 741 0
 308 0000 014B     		ldr	r3, .L32
 309 0002 1878     		ldrb	r0, [r3]	@ zero_extendqisi2
 310              	.LVL12:
 742:Generated_Source\PSoC5/PWM3.c ****         return (result);
 743:Generated_Source\PSoC5/PWM3.c ****     }
 311              		.loc 1 743 0
 312 0004 7047     		bx	lr
 313              	.L33:
 314 0006 00BF     		.align	2
 315              	.L32:
 316 0008 74650040 		.word	1073767796
 317              		.cfi_endproc
 318              	.LFE9:
 319              		.size	PWM3_ReadControlRegister, .-PWM3_ReadControlRegister
 320              		.section	.text.PWM3_WriteControlRegister,"ax",%progbits
 321              		.align	2
 322              		.global	PWM3_WriteControlRegister
 323              		.thumb
 324              		.thumb_func
 325              		.type	PWM3_WriteControlRegister, %function
 326              	PWM3_WriteControlRegister:
 327              	.LFB10:
ARM GAS  C:\Users\tkam627\AppData\Local\Temp\ccTcM7WQ.s 			page 20


 744:Generated_Source\PSoC5/PWM3.c **** 
 745:Generated_Source\PSoC5/PWM3.c **** 
 746:Generated_Source\PSoC5/PWM3.c ****     /*******************************************************************************
 747:Generated_Source\PSoC5/PWM3.c ****     * Function Name: PWM3_WriteControlRegister
 748:Generated_Source\PSoC5/PWM3.c ****     ********************************************************************************
 749:Generated_Source\PSoC5/PWM3.c ****     *
 750:Generated_Source\PSoC5/PWM3.c ****     * Summary:
 751:Generated_Source\PSoC5/PWM3.c ****     *  Sets the bit field of the control register. This API is available only if
 752:Generated_Source\PSoC5/PWM3.c ****     *  the control register is not removed.
 753:Generated_Source\PSoC5/PWM3.c ****     *
 754:Generated_Source\PSoC5/PWM3.c ****     * Parameters:
 755:Generated_Source\PSoC5/PWM3.c ****     *  uint8 control: Control register bit field, The status register bits are:
 756:Generated_Source\PSoC5/PWM3.c ****     *  [7]   : PWM Enable
 757:Generated_Source\PSoC5/PWM3.c ****     *  [6]   : Reset
 758:Generated_Source\PSoC5/PWM3.c ****     *  [5:3] : Compare Mode2
 759:Generated_Source\PSoC5/PWM3.c ****     *  [2:0] : Compare Mode2
 760:Generated_Source\PSoC5/PWM3.c ****     *
 761:Generated_Source\PSoC5/PWM3.c ****     * Return:
 762:Generated_Source\PSoC5/PWM3.c ****     *  None
 763:Generated_Source\PSoC5/PWM3.c ****     *
 764:Generated_Source\PSoC5/PWM3.c ****     *******************************************************************************/
 765:Generated_Source\PSoC5/PWM3.c ****     void PWM3_WriteControlRegister(uint8 control) 
 766:Generated_Source\PSoC5/PWM3.c ****     {
 328              		.loc 1 766 0
 329              		.cfi_startproc
 330              		@ args = 0, pretend = 0, frame = 0
 331              		@ frame_needed = 0, uses_anonymous_args = 0
 332              		@ link register save eliminated.
 333              	.LVL13:
 767:Generated_Source\PSoC5/PWM3.c ****         CY_SET_REG8(PWM3_CONTROL_PTR, control);
 334              		.loc 1 767 0
 335 0000 014B     		ldr	r3, .L35
 336 0002 1870     		strb	r0, [r3]
 337 0004 7047     		bx	lr
 338              	.L36:
 339 0006 00BF     		.align	2
 340              	.L35:
 341 0008 74650040 		.word	1073767796
 342              		.cfi_endproc
 343              	.LFE10:
 344              		.size	PWM3_WriteControlRegister, .-PWM3_WriteControlRegister
 345              		.section	.text.PWM3_ReadCapture,"ax",%progbits
 346              		.align	2
 347              		.global	PWM3_ReadCapture
 348              		.thumb
 349              		.thumb_func
 350              		.type	PWM3_ReadCapture, %function
 351              	PWM3_ReadCapture:
 352              	.LFB11:
 768:Generated_Source\PSoC5/PWM3.c ****     }
 769:Generated_Source\PSoC5/PWM3.c **** 
 770:Generated_Source\PSoC5/PWM3.c **** #endif /* (PWM3_UseControl) */
 771:Generated_Source\PSoC5/PWM3.c **** 
 772:Generated_Source\PSoC5/PWM3.c **** 
 773:Generated_Source\PSoC5/PWM3.c **** #if (!PWM3_UsingFixedFunction)
 774:Generated_Source\PSoC5/PWM3.c **** 
 775:Generated_Source\PSoC5/PWM3.c **** 
ARM GAS  C:\Users\tkam627\AppData\Local\Temp\ccTcM7WQ.s 			page 21


 776:Generated_Source\PSoC5/PWM3.c ****     /*******************************************************************************
 777:Generated_Source\PSoC5/PWM3.c ****     * Function Name: PWM3_ReadCapture
 778:Generated_Source\PSoC5/PWM3.c ****     ********************************************************************************
 779:Generated_Source\PSoC5/PWM3.c ****     *
 780:Generated_Source\PSoC5/PWM3.c ****     * Summary:
 781:Generated_Source\PSoC5/PWM3.c ****     *  Reads the capture value from the capture FIFO.
 782:Generated_Source\PSoC5/PWM3.c ****     *
 783:Generated_Source\PSoC5/PWM3.c ****     * Parameters:
 784:Generated_Source\PSoC5/PWM3.c ****     *  None
 785:Generated_Source\PSoC5/PWM3.c ****     *
 786:Generated_Source\PSoC5/PWM3.c ****     * Return:
 787:Generated_Source\PSoC5/PWM3.c ****     *  uint8/uint16: The current capture value
 788:Generated_Source\PSoC5/PWM3.c ****     *
 789:Generated_Source\PSoC5/PWM3.c ****     *******************************************************************************/
 790:Generated_Source\PSoC5/PWM3.c ****     uint8 PWM3_ReadCapture(void) 
 791:Generated_Source\PSoC5/PWM3.c ****     {
 353              		.loc 1 791 0
 354              		.cfi_startproc
 355              		@ args = 0, pretend = 0, frame = 0
 356              		@ frame_needed = 0, uses_anonymous_args = 0
 357              		@ link register save eliminated.
 792:Generated_Source\PSoC5/PWM3.c ****         return (CY_GET_REG8(PWM3_CAPTURE_LSB_PTR));
 358              		.loc 1 792 0
 359 0000 014B     		ldr	r3, .L38
 360 0002 1878     		ldrb	r0, [r3]	@ zero_extendqisi2
 793:Generated_Source\PSoC5/PWM3.c ****     }
 361              		.loc 1 793 0
 362 0004 7047     		bx	lr
 363              	.L39:
 364 0006 00BF     		.align	2
 365              	.L38:
 366 0008 54650040 		.word	1073767764
 367              		.cfi_endproc
 368              	.LFE11:
 369              		.size	PWM3_ReadCapture, .-PWM3_ReadCapture
 370              		.section	.text.PWM3_ReadCompare1,"ax",%progbits
 371              		.align	2
 372              		.global	PWM3_ReadCompare1
 373              		.thumb
 374              		.thumb_func
 375              		.type	PWM3_ReadCompare1, %function
 376              	PWM3_ReadCompare1:
 377              	.LFB12:
 794:Generated_Source\PSoC5/PWM3.c **** 
 795:Generated_Source\PSoC5/PWM3.c **** #endif /* (!PWM3_UsingFixedFunction) */
 796:Generated_Source\PSoC5/PWM3.c **** 
 797:Generated_Source\PSoC5/PWM3.c **** 
 798:Generated_Source\PSoC5/PWM3.c **** #if (PWM3_UseOneCompareMode)
 799:Generated_Source\PSoC5/PWM3.c **** 
 800:Generated_Source\PSoC5/PWM3.c **** 
 801:Generated_Source\PSoC5/PWM3.c ****     /*******************************************************************************
 802:Generated_Source\PSoC5/PWM3.c ****     * Function Name: PWM3_ReadCompare
 803:Generated_Source\PSoC5/PWM3.c ****     ********************************************************************************
 804:Generated_Source\PSoC5/PWM3.c ****     *
 805:Generated_Source\PSoC5/PWM3.c ****     * Summary:
 806:Generated_Source\PSoC5/PWM3.c ****     *  Reads the compare value for the compare output when the PWM Mode parameter is
 807:Generated_Source\PSoC5/PWM3.c ****     *  set to Dither mode, Center Aligned mode, or One Output mode.
ARM GAS  C:\Users\tkam627\AppData\Local\Temp\ccTcM7WQ.s 			page 22


 808:Generated_Source\PSoC5/PWM3.c ****     *
 809:Generated_Source\PSoC5/PWM3.c ****     * Parameters:
 810:Generated_Source\PSoC5/PWM3.c ****     *  None
 811:Generated_Source\PSoC5/PWM3.c ****     *
 812:Generated_Source\PSoC5/PWM3.c ****     * Return:
 813:Generated_Source\PSoC5/PWM3.c ****     *  uint8/uint16: Current compare value
 814:Generated_Source\PSoC5/PWM3.c ****     *
 815:Generated_Source\PSoC5/PWM3.c ****     *******************************************************************************/
 816:Generated_Source\PSoC5/PWM3.c ****     uint8 PWM3_ReadCompare(void) 
 817:Generated_Source\PSoC5/PWM3.c ****     {
 818:Generated_Source\PSoC5/PWM3.c ****         #if(PWM3_UsingFixedFunction)
 819:Generated_Source\PSoC5/PWM3.c ****             return ((uint8)CY_GET_REG16(PWM3_COMPARE1_LSB_PTR));
 820:Generated_Source\PSoC5/PWM3.c ****         #else
 821:Generated_Source\PSoC5/PWM3.c ****             return (CY_GET_REG8(PWM3_COMPARE1_LSB_PTR));
 822:Generated_Source\PSoC5/PWM3.c ****         #endif /* (PWM3_UsingFixedFunction) */
 823:Generated_Source\PSoC5/PWM3.c ****     }
 824:Generated_Source\PSoC5/PWM3.c **** 
 825:Generated_Source\PSoC5/PWM3.c **** #else
 826:Generated_Source\PSoC5/PWM3.c **** 
 827:Generated_Source\PSoC5/PWM3.c **** 
 828:Generated_Source\PSoC5/PWM3.c ****     /*******************************************************************************
 829:Generated_Source\PSoC5/PWM3.c ****     * Function Name: PWM3_ReadCompare1
 830:Generated_Source\PSoC5/PWM3.c ****     ********************************************************************************
 831:Generated_Source\PSoC5/PWM3.c ****     *
 832:Generated_Source\PSoC5/PWM3.c ****     * Summary:
 833:Generated_Source\PSoC5/PWM3.c ****     *  Reads the compare value for the compare1 output.
 834:Generated_Source\PSoC5/PWM3.c ****     *
 835:Generated_Source\PSoC5/PWM3.c ****     * Parameters:
 836:Generated_Source\PSoC5/PWM3.c ****     *  None
 837:Generated_Source\PSoC5/PWM3.c ****     *
 838:Generated_Source\PSoC5/PWM3.c ****     * Return:
 839:Generated_Source\PSoC5/PWM3.c ****     *  uint8/uint16: Current compare value.
 840:Generated_Source\PSoC5/PWM3.c ****     *
 841:Generated_Source\PSoC5/PWM3.c ****     *******************************************************************************/
 842:Generated_Source\PSoC5/PWM3.c ****     uint8 PWM3_ReadCompare1(void) 
 843:Generated_Source\PSoC5/PWM3.c ****     {
 378              		.loc 1 843 0
 379              		.cfi_startproc
 380              		@ args = 0, pretend = 0, frame = 0
 381              		@ frame_needed = 0, uses_anonymous_args = 0
 382              		@ link register save eliminated.
 844:Generated_Source\PSoC5/PWM3.c ****         return (CY_GET_REG8(PWM3_COMPARE1_LSB_PTR));
 383              		.loc 1 844 0
 384 0000 014B     		ldr	r3, .L41
 385 0002 1878     		ldrb	r0, [r3]	@ zero_extendqisi2
 845:Generated_Source\PSoC5/PWM3.c ****     }
 386              		.loc 1 845 0
 387 0004 7047     		bx	lr
 388              	.L42:
 389 0006 00BF     		.align	2
 390              	.L41:
 391 0008 24650040 		.word	1073767716
 392              		.cfi_endproc
 393              	.LFE12:
 394              		.size	PWM3_ReadCompare1, .-PWM3_ReadCompare1
 395              		.section	.text.PWM3_ReadCompare2,"ax",%progbits
 396              		.align	2
ARM GAS  C:\Users\tkam627\AppData\Local\Temp\ccTcM7WQ.s 			page 23


 397              		.global	PWM3_ReadCompare2
 398              		.thumb
 399              		.thumb_func
 400              		.type	PWM3_ReadCompare2, %function
 401              	PWM3_ReadCompare2:
 402              	.LFB13:
 846:Generated_Source\PSoC5/PWM3.c **** 
 847:Generated_Source\PSoC5/PWM3.c **** 
 848:Generated_Source\PSoC5/PWM3.c ****     /*******************************************************************************
 849:Generated_Source\PSoC5/PWM3.c ****     * Function Name: PWM3_ReadCompare2
 850:Generated_Source\PSoC5/PWM3.c ****     ********************************************************************************
 851:Generated_Source\PSoC5/PWM3.c ****     *
 852:Generated_Source\PSoC5/PWM3.c ****     * Summary:
 853:Generated_Source\PSoC5/PWM3.c ****     *  Reads the compare value for the compare2 output.
 854:Generated_Source\PSoC5/PWM3.c ****     *
 855:Generated_Source\PSoC5/PWM3.c ****     * Parameters:
 856:Generated_Source\PSoC5/PWM3.c ****     *  None
 857:Generated_Source\PSoC5/PWM3.c ****     *
 858:Generated_Source\PSoC5/PWM3.c ****     * Return:
 859:Generated_Source\PSoC5/PWM3.c ****     *  uint8/uint16: Current compare value.
 860:Generated_Source\PSoC5/PWM3.c ****     *
 861:Generated_Source\PSoC5/PWM3.c ****     *******************************************************************************/
 862:Generated_Source\PSoC5/PWM3.c ****     uint8 PWM3_ReadCompare2(void) 
 863:Generated_Source\PSoC5/PWM3.c ****     {
 403              		.loc 1 863 0
 404              		.cfi_startproc
 405              		@ args = 0, pretend = 0, frame = 0
 406              		@ frame_needed = 0, uses_anonymous_args = 0
 407              		@ link register save eliminated.
 864:Generated_Source\PSoC5/PWM3.c ****         return (CY_GET_REG8(PWM3_COMPARE2_LSB_PTR));
 408              		.loc 1 864 0
 409 0000 014B     		ldr	r3, .L44
 410 0002 1878     		ldrb	r0, [r3]	@ zero_extendqisi2
 865:Generated_Source\PSoC5/PWM3.c ****     }
 411              		.loc 1 865 0
 412 0004 7047     		bx	lr
 413              	.L45:
 414 0006 00BF     		.align	2
 415              	.L44:
 416 0008 34650040 		.word	1073767732
 417              		.cfi_endproc
 418              	.LFE13:
 419              		.size	PWM3_ReadCompare2, .-PWM3_ReadCompare2
 420              		.section	.text.PWM3_ReadPeriod,"ax",%progbits
 421              		.align	2
 422              		.global	PWM3_ReadPeriod
 423              		.thumb
 424              		.thumb_func
 425              		.type	PWM3_ReadPeriod, %function
 426              	PWM3_ReadPeriod:
 427              	.LFB14:
 866:Generated_Source\PSoC5/PWM3.c **** 
 867:Generated_Source\PSoC5/PWM3.c **** #endif /* (PWM3_UseOneCompareMode) */
 868:Generated_Source\PSoC5/PWM3.c **** 
 869:Generated_Source\PSoC5/PWM3.c **** 
 870:Generated_Source\PSoC5/PWM3.c **** /*******************************************************************************
 871:Generated_Source\PSoC5/PWM3.c **** * Function Name: PWM3_ReadPeriod
ARM GAS  C:\Users\tkam627\AppData\Local\Temp\ccTcM7WQ.s 			page 24


 872:Generated_Source\PSoC5/PWM3.c **** ********************************************************************************
 873:Generated_Source\PSoC5/PWM3.c **** *
 874:Generated_Source\PSoC5/PWM3.c **** * Summary:
 875:Generated_Source\PSoC5/PWM3.c **** *  Reads the period value used by the PWM hardware.
 876:Generated_Source\PSoC5/PWM3.c **** *
 877:Generated_Source\PSoC5/PWM3.c **** * Parameters:
 878:Generated_Source\PSoC5/PWM3.c **** *  None
 879:Generated_Source\PSoC5/PWM3.c **** *
 880:Generated_Source\PSoC5/PWM3.c **** * Return:
 881:Generated_Source\PSoC5/PWM3.c **** *  uint8/16: Period value
 882:Generated_Source\PSoC5/PWM3.c **** *
 883:Generated_Source\PSoC5/PWM3.c **** *******************************************************************************/
 884:Generated_Source\PSoC5/PWM3.c **** uint8 PWM3_ReadPeriod(void) 
 885:Generated_Source\PSoC5/PWM3.c **** {
 428              		.loc 1 885 0
 429              		.cfi_startproc
 430              		@ args = 0, pretend = 0, frame = 0
 431              		@ frame_needed = 0, uses_anonymous_args = 0
 432              		@ link register save eliminated.
 886:Generated_Source\PSoC5/PWM3.c ****     #if(PWM3_UsingFixedFunction)
 887:Generated_Source\PSoC5/PWM3.c ****         return ((uint8)CY_GET_REG16(PWM3_PERIOD_LSB_PTR));
 888:Generated_Source\PSoC5/PWM3.c ****     #else
 889:Generated_Source\PSoC5/PWM3.c ****         return (CY_GET_REG8(PWM3_PERIOD_LSB_PTR));
 433              		.loc 1 889 0
 434 0000 014B     		ldr	r3, .L47
 435 0002 1878     		ldrb	r0, [r3]	@ zero_extendqisi2
 890:Generated_Source\PSoC5/PWM3.c ****     #endif /* (PWM3_UsingFixedFunction) */
 891:Generated_Source\PSoC5/PWM3.c **** }
 436              		.loc 1 891 0
 437 0004 7047     		bx	lr
 438              	.L48:
 439 0006 00BF     		.align	2
 440              	.L47:
 441 0008 44650040 		.word	1073767748
 442              		.cfi_endproc
 443              	.LFE14:
 444              		.size	PWM3_ReadPeriod, .-PWM3_ReadPeriod
 445              		.global	PWM3_initVar
 446              		.bss
 447              		.set	.LANCHOR0,. + 0
 448              		.type	PWM3_initVar, %object
 449              		.size	PWM3_initVar, 1
 450              	PWM3_initVar:
 451 0000 00       		.space	1
 452              		.text
 453              	.Letext0:
 454              		.file 2 "Generated_Source\\PSoC5\\cytypes.h"