ARM GAS  C:\Users\tkam627\AppData\Local\Temp\cc5dZg4x.s 			page 1


   1              		.syntax unified
   2              		.cpu cortex-m3
   3              		.fpu softvfp
   4              		.eabi_attribute 20, 1
   5              		.eabi_attribute 21, 1
   6              		.eabi_attribute 23, 3
   7              		.eabi_attribute 24, 1
   8              		.eabi_attribute 25, 1
   9              		.eabi_attribute 26, 1
  10              		.eabi_attribute 30, 1
  11              		.eabi_attribute 34, 1
  12              		.eabi_attribute 18, 4
  13              		.thumb
  14              		.syntax unified
  15              		.file	"Tick.c"
  16              		.text
  17              	.Ltext0:
  18              		.cfi_sections	.debug_frame
  19              		.section	.text.tick_init,"ax",%progbits
  20              		.align	2
  21              		.global	tick_init
  22              		.thumb
  23              		.thumb_func
  24              		.type	tick_init, %function
  25              	tick_init:
  26              	.LFB1:
  27              		.file 1 "Tick.c"
   1:Tick.c        **** /* ========================================
   2:Tick.c        ****  *
   3:Tick.c        ****  * Copyright YOUR COMPANY, THE YEAR
   4:Tick.c        ****  * All Rights Reserved
   5:Tick.c        ****  * UNPUBLISHED, LICENSED SOFTWARE.
   6:Tick.c        ****  *
   7:Tick.c        ****  * CONFIDENTIAL AND PROPRIETARY INFORMATION
   8:Tick.c        ****  * WHICH IS THE PROPERTY OF your company.
   9:Tick.c        ****  *
  10:Tick.c        ****  * ========================================
  11:Tick.c        **** */
  12:Tick.c        **** #include "PID.h"
  13:Tick.c        **** 
  14:Tick.c        **** /*** Private Prototypes ***/
  15:Tick.c        **** static bool mInit = false;
  16:Tick.c        **** static uint32_t mTick;
  17:Tick.c        **** 
  18:Tick.c        **** void tick_init() {
  28              		.loc 1 18 0
  29              		.cfi_startproc
  30              		@ args = 0, pretend = 0, frame = 0
  31              		@ frame_needed = 0, uses_anonymous_args = 0
  32              		@ link register save eliminated.
  19:Tick.c        ****     if (!mInit) {
  33              		.loc 1 19 0
  34 0000 044B     		ldr	r3, .L3
  35 0002 1B78     		ldrb	r3, [r3]	@ zero_extendqisi2
  36 0004 23B9     		cbnz	r3, .L1
  20:Tick.c        ****         mInit = true;
  37              		.loc 1 20 0
ARM GAS  C:\Users\tkam627\AppData\Local\Temp\cc5dZg4x.s 			page 2


  38 0006 034B     		ldr	r3, .L3
  39 0008 0122     		movs	r2, #1
  40 000a 1A70     		strb	r2, [r3]
  21:Tick.c        ****         mTick = 0;
  41              		.loc 1 21 0
  42 000c 0022     		movs	r2, #0
  43 000e 5A60     		str	r2, [r3, #4]
  44              	.L1:
  45 0010 7047     		bx	lr
  46              	.L4:
  47 0012 00BF     		.align	2
  48              	.L3:
  49 0014 00000000 		.word	.LANCHOR0
  50              		.cfi_endproc
  51              	.LFE1:
  52              		.size	tick_init, .-tick_init
  53              		.section	.text.tick_inc,"ax",%progbits
  54              		.align	2
  55              		.global	tick_inc
  56              		.thumb
  57              		.thumb_func
  58              		.type	tick_inc, %function
  59              	tick_inc:
  60              	.LFB2:
  22:Tick.c        ****     }
  23:Tick.c        **** }
  24:Tick.c        **** 
  25:Tick.c        **** bool tick_inc() {
  61              		.loc 1 25 0
  62              		.cfi_startproc
  63              		@ args = 0, pretend = 0, frame = 0
  64              		@ frame_needed = 0, uses_anonymous_args = 0
  65              		@ link register save eliminated.
  26:Tick.c        ****     if (!mInit) {
  66              		.loc 1 26 0
  67 0000 034B     		ldr	r3, .L7
  68 0002 1878     		ldrb	r0, [r3]	@ zero_extendqisi2
  69 0004 18B1     		cbz	r0, .L6
  27:Tick.c        ****         return false;   
  28:Tick.c        ****     }
  29:Tick.c        ****     mTick++;
  70              		.loc 1 29 0
  71 0006 1A46     		mov	r2, r3
  72 0008 5B68     		ldr	r3, [r3, #4]
  73 000a 0133     		adds	r3, r3, #1
  74 000c 5360     		str	r3, [r2, #4]
  75              	.L6:
  30:Tick.c        ****     return true;
  31:Tick.c        **** }
  76              		.loc 1 31 0
  77 000e 7047     		bx	lr
  78              	.L8:
  79              		.align	2
  80              	.L7:
  81 0010 00000000 		.word	.LANCHOR0
  82              		.cfi_endproc
  83              	.LFE2:
ARM GAS  C:\Users\tkam627\AppData\Local\Temp\cc5dZg4x.s 			page 3


  84              		.size	tick_inc, .-tick_inc
  85              		.section	.text.tick_set,"ax",%progbits
  86              		.align	2
  87              		.global	tick_set
  88              		.thumb
  89              		.thumb_func
  90              		.type	tick_set, %function
  91              	tick_set:
  92              	.LFB3:
  32:Tick.c        **** 
  33:Tick.c        **** bool tick_set(uint32_t tick) {
  93              		.loc 1 33 0
  94              		.cfi_startproc
  95              		@ args = 0, pretend = 0, frame = 0
  96              		@ frame_needed = 0, uses_anonymous_args = 0
  97              		@ link register save eliminated.
  98              	.LVL0:
  34:Tick.c        ****     if (!mInit) {
  99              		.loc 1 34 0
 100 0000 034B     		ldr	r3, .L11
 101 0002 1B78     		ldrb	r3, [r3]	@ zero_extendqisi2
 102 0004 0BB1     		cbz	r3, .L10
  35:Tick.c        ****         return false;   
  36:Tick.c        ****     }
  37:Tick.c        ****     mTick = tick;
 103              		.loc 1 37 0
 104 0006 024A     		ldr	r2, .L11
 105 0008 5060     		str	r0, [r2, #4]
 106              	.L10:
  38:Tick.c        ****     return true;
  39:Tick.c        **** }
 107              		.loc 1 39 0
 108 000a 1846     		mov	r0, r3
 109              	.LVL1:
 110 000c 7047     		bx	lr
 111              	.L12:
 112 000e 00BF     		.align	2
 113              	.L11:
 114 0010 00000000 		.word	.LANCHOR0
 115              		.cfi_endproc
 116              	.LFE3:
 117              		.size	tick_set, .-tick_set
 118              		.section	.text.tick_get,"ax",%progbits
 119              		.align	2
 120              		.global	tick_get
 121              		.thumb
 122              		.thumb_func
 123              		.type	tick_get, %function
 124              	tick_get:
 125              	.LFB4:
  40:Tick.c        **** 
  41:Tick.c        **** uint32_t tick_get() {
 126              		.loc 1 41 0
 127              		.cfi_startproc
 128              		@ args = 0, pretend = 0, frame = 0
 129              		@ frame_needed = 0, uses_anonymous_args = 0
 130              		@ link register save eliminated.
ARM GAS  C:\Users\tkam627\AppData\Local\Temp\cc5dZg4x.s 			page 4


  42:Tick.c        ****     if (!mInit) {
 131              		.loc 1 42 0
 132 0000 034B     		ldr	r3, .L16
 133 0002 1B78     		ldrb	r3, [r3]	@ zero_extendqisi2
 134 0004 13B1     		cbz	r3, .L15
  43:Tick.c        ****         return false;   
  44:Tick.c        ****     }
  45:Tick.c        ****     return mTick;
 135              		.loc 1 45 0
 136 0006 024B     		ldr	r3, .L16
 137 0008 5868     		ldr	r0, [r3, #4]
 138 000a 7047     		bx	lr
 139              	.L15:
  43:Tick.c        ****         return false;   
 140              		.loc 1 43 0
 141 000c 0020     		movs	r0, #0
  46:Tick.c        **** }
 142              		.loc 1 46 0
 143 000e 7047     		bx	lr
 144              	.L17:
 145              		.align	2
 146              	.L16:
 147 0010 00000000 		.word	.LANCHOR0
 148              		.cfi_endproc
 149              	.LFE4:
 150              		.size	tick_get, .-tick_get
 151              		.bss
 152              		.align	2
 153              		.set	.LANCHOR0,. + 0
 154              		.type	mInit, %object
 155              		.size	mInit, 1
 156              	mInit:
 157 0000 00       		.space	1
 158 0001 000000   		.space	3
 159              		.type	mTick, %object
 160              		.size	mTick, 4
 161              	mTick:
 162 0004 00000000 		.space	4
 163              		.text
 164              	.Letext0:
 165              		.file 2 "c:\\program files (x86)\\cypress\\psoc creator\\4.2\\psoc creator\\import\\gnu\\arm\\5.4.
 166              		.file 3 "c:\\program files (x86)\\cypress\\psoc creator\\4.2\\psoc creator\\import\\gnu\\arm\\5.4.